0000000000000020 C _.gomp_critical_user_.var
                 U _PyBaseObject_Type
                 U _PyBuffer_Release
                 U _PyByteArray_AsString
                 U _PyByteArray_Size
                 U _PyByteArray_Type
                 U _PyBytes_AsString
                 U _PyBytes_AsStringAndSize
                 U _PyBytes_Size
                 U _PyCFunction_Type
                 U _PyCMethod_New
                 U _PyCapsule_GetContext
                 U _PyCapsule_GetName
                 U _PyCapsule_GetPointer
                 U _PyCapsule_New
                 U _PyCapsule_SetContext
                 U _PyCapsule_SetPointer
                 U _PyCapsule_Type
                 U _PyDict_Copy
                 U _PyDict_DelItemString
                 U _PyDict_GetItemWithError
                 U _PyDict_New
                 U _PyDict_Next
                 U _PyDict_Size
                 U _PyDict_Type
                 U _PyErr_Clear
                 U _PyErr_Fetch
                 U _PyErr_Format
                 U _PyErr_NormalizeException
                 U _PyErr_Occurred
                 U _PyErr_Restore
                 U _PyErr_SetString
                 U _PyErr_WriteUnraisable
                 U _PyEval_AcquireThread
                 U _PyEval_GetBuiltins
                 U _PyEval_SaveThread
                 U _PyExc_ImportError
                 U _PyExc_IndexError
                 U _PyExc_MemoryError
                 U _PyExc_OverflowError
                 U _PyExc_RuntimeError
                 U _PyExc_SystemError
                 U _PyExc_TypeError
                 U _PyExc_ValueError
                 U _PyException_SetCause
                 U _PyException_SetContext
                 U _PyException_SetTraceback
                 U _PyFloat_AsDouble
                 U _PyFloat_Type
                 U _PyFrame_GetBack
                 U _PyFrame_GetCode
                 U _PyFrame_GetLineNumber
                 U _PyGILState_Ensure
                 U _PyGILState_GetThisThreadState
                 U _PyGILState_Release
                 U _PyImport_ImportModule
                 U _PyIndex_Check
000000000001e050 T _PyInit__trace
                 U _PyInstanceMethod_New
                 U _PyInstanceMethod_Type
                 U _PyList_Size
                 U _PyLong_AsLong
                 U _PyLong_AsUnsignedLong
                 U _PyMem_Calloc
                 U _PyMem_Free
                 U _PyModule_AddObject
                 U _PyModule_Create2
                 U _PyNumber_Check
                 U _PyNumber_Float
                 U _PyNumber_Long
                 U _PyObject_CallFunctionObjArgs
                 U _PyObject_CallObject
                 U _PyObject_ClearWeakRefs
                 U _PyObject_GC_UnTrack
                 U _PyObject_GetAttrString
                 U _PyObject_GetBuffer
                 U _PyObject_HasAttrString
                 U _PyObject_IsInstance
                 U _PyObject_Repr
                 U _PyObject_SetAttrString
                 U _PyObject_SetItem
                 U _PyObject_Str
                 U _PyProperty_Type
                 U _PySequence_Check
                 U _PySequence_GetItem
                 U _PySequence_Size
                 U _PySequence_Tuple
                 U _PyThreadState_Clear
                 U _PyThreadState_DeleteCurrent
                 U _PyThreadState_Get
                 U _PyThreadState_New
                 U _PyThread_tss_alloc
                 U _PyThread_tss_create
                 U _PyThread_tss_get
                 U _PyThread_tss_set
                 U _PyTuple_GetItem
                 U _PyTuple_New
                 U _PyTuple_SetItem
                 U _PyTuple_Size
                 U _PyType_IsSubtype
                 U _PyType_Ready
                 U _PyType_Type
                 U _PyUnicode_AsEncodedString
                 U _PyUnicode_AsUTF8AndSize
                 U _PyUnicode_AsUTF8String
                 U _PyUnicode_DecodeUTF8
                 U _PyUnicode_FromString
                 U _PyWeakref_NewRef
                 U _Py_GetVersion
                 U __PyObject_GetDictPtr
                 U __PyThreadState_UncheckedGet
                 U __PyType_Lookup
                 U __Py_Dealloc
                 U __Py_NoneStruct
                 U __Py_NotImplementedStruct
                 U __Unwind_Resume
0000000000011b40 T void lapack_xstev<double>(char*, int*, double*, double*, double*, int*, double*, int*)
0000000000011b50 T void lapack_xstev<long double>(char*, int*, long double*, long double*, long double*, int*, long double*, int*)
0000000000011b30 T void lapack_xstev<float>(char*, int*, float*, float*, float*, int*, float*, int*)
0000000000011e90 T void lapack_xbdsdc<double>(char*, char*, int*, double*, double*, double*, int*, double*, int*, double*, int*, double*, int*, int*)
0000000000011ea0 T void lapack_xbdsdc<long double>(char*, char*, int*, long double*, long double*, long double*, int*, long double*, int*, long double*, int*, long double*, int*, int*)
0000000000011e80 T void lapack_xbdsdc<float>(char*, char*, int*, float*, float*, float*, int*, float*, int*, float*, int*, float*, int*, int*)
000000000004acb0 T void _trace_param_f<false, double, SparseEigenLinearOperator<double> >(SparseEigenLinearOperator<double> const*, pybind11::array_t<double, 17> const&, unsigned long, int, unsigned long, double, unsigned long, unsigned long, double, double, double, double, unsigned long, unsigned long, int, pybind11::array_t<double, 17>&, pybind11::array_t<double, 17>&, pybind11::array_t<double, 17>&, pybind11::array_t<int, 16>&, pybind11::array_t<int, 16>&, pybind11::array_t<int, 16>&, pybind11::array_t<int, 16>&, double&, pybind11::kwargs const&)
00000000000230a0 T void _trace_param_f<false, float, SparseEigenLinearOperator<float> >(SparseEigenLinearOperator<float> const*, pybind11::array_t<float, 17> const&, unsigned long, int, unsigned long, float, unsigned long, unsigned long, float, float, float, float, unsigned long, unsigned long, int, pybind11::array_t<float, 17>&, pybind11::array_t<float, 17>&, pybind11::array_t<float, 17>&, pybind11::array_t<int, 16>&, pybind11::array_t<int, 16>&, pybind11::array_t<int, 16>&, pybind11::array_t<int, 16>&, float&, pybind11::kwargs const&)
00000000000ed7c0 T void _trace_param_f<true, double, PyLinearOperator<double> >(PyLinearOperator<double> const*, pybind11::array_t<double, 17> const&, unsigned long, int, unsigned long, double, unsigned long, unsigned long, double, double, double, double, unsigned long, unsigned long, int, pybind11::array_t<double, 17>&, pybind11::array_t<double, 17>&, pybind11::array_t<double, 17>&, pybind11::array_t<int, 16>&, pybind11::array_t<int, 16>&, pybind11::array_t<int, 16>&, pybind11::array_t<int, 16>&, double&, pybind11::kwargs const&)
00000000000b9600 T void _trace_param_f<true, double, DenseEigenLinearOperator<double> >(DenseEigenLinearOperator<double> const*, pybind11::array_t<double, 17> const&, unsigned long, int, unsigned long, double, unsigned long, unsigned long, double, double, double, double, unsigned long, unsigned long, int, pybind11::array_t<double, 17>&, pybind11::array_t<double, 17>&, pybind11::array_t<double, 17>&, pybind11::array_t<int, 16>&, pybind11::array_t<int, 16>&, pybind11::array_t<int, 16>&, pybind11::array_t<int, 16>&, double&, pybind11::kwargs const&)
0000000000084f30 T void _trace_param_f<true, double, SparseEigenLinearOperator<double> >(SparseEigenLinearOperator<double> const*, pybind11::array_t<double, 17> const&, unsigned long, int, unsigned long, double, unsigned long, unsigned long, double, double, double, double, unsigned long, unsigned long, int, pybind11::array_t<double, 17>&, pybind11::array_t<double, 17>&, pybind11::array_t<double, 17>&, pybind11::array_t<int, 16>&, pybind11::array_t<int, 16>&, pybind11::array_t<int, 16>&, pybind11::array_t<int, 16>&, double&, pybind11::kwargs const&)
00000000000d37b0 T void _trace_param_f<true, float, PyLinearOperator<float> >(PyLinearOperator<float> const*, pybind11::array_t<float, 17> const&, unsigned long, int, unsigned long, float, unsigned long, unsigned long, float, float, float, float, unsigned long, unsigned long, int, pybind11::array_t<float, 17>&, pybind11::array_t<float, 17>&, pybind11::array_t<float, 17>&, pybind11::array_t<int, 16>&, pybind11::array_t<int, 16>&, pybind11::array_t<int, 16>&, pybind11::array_t<int, 16>&, float&, pybind11::kwargs const&)
000000000009ede0 T void _trace_param_f<true, float, DenseEigenLinearOperator<float> >(DenseEigenLinearOperator<float> const*, pybind11::array_t<float, 17> const&, unsigned long, int, unsigned long, float, unsigned long, unsigned long, float, float, float, float, unsigned long, unsigned long, int, pybind11::array_t<float, 17>&, pybind11::array_t<float, 17>&, pybind11::array_t<float, 17>&, pybind11::array_t<int, 16>&, pybind11::array_t<int, 16>&, pybind11::array_t<int, 16>&, pybind11::array_t<int, 16>&, float&, pybind11::kwargs const&)
000000000006c260 T void _trace_param_f<true, float, SparseEigenLinearOperator<float> >(SparseEigenLinearOperator<float> const*, pybind11::array_t<float, 17> const&, unsigned long, int, unsigned long, float, unsigned long, unsigned long, float, float, float, float, unsigned long, unsigned long, int, pybind11::array_t<float, 17>&, pybind11::array_t<float, 17>&, pybind11::array_t<float, 17>&, pybind11::array_t<int, 16>&, pybind11::array_t<int, 16>&, pybind11::array_t<int, 16>&, pybind11::array_t<int, 16>&, float&, pybind11::kwargs const&)
000000000004f390 T void generate_array<0ul, double, ThreadedRNG64<SplitMix64, std::__1::random_device> >(ThreadedRNG64<SplitMix64, std::__1::random_device>&, double*, int, int)
0000000000053130 T void generate_array<0ul, double, ThreadedRNG64<Xoshiro256StarStar, std::__1::random_device> >(ThreadedRNG64<Xoshiro256StarStar, std::__1::random_device>&, double*, int, int)
0000000000056890 T void generate_array<0ul, double, ThreadedRNG64<pcg_detail::engine<unsigned long long, unsigned __int128, pcg_detail::xsl_rr_mixin<unsigned long long, unsigned __int128>, false, pcg_detail::specific_stream<unsigned __int128>, pcg_detail::default_multiplier<unsigned __int128> >, std::__1::random_device> >(ThreadedRNG64<pcg_detail::engine<unsigned long long, unsigned __int128, pcg_detail::xsl_rr_mixin<unsigned long long, unsigned __int128>, false, pcg_detail::specific_stream<unsigned __int128>, pcg_detail::default_multiplier<unsigned __int128> >, std::__1::random_device>&, double*, int, int)
0000000000017c40 T void generate_array<0ul, double, ThreadedRNG64<std::__1::mersenne_twister_engine<unsigned long long, 64ul, 312ul, 156ul, 31ul, 13043109905998158313ull, 29ul, 6148914691236517205ull, 17ul, 8202884508482404352ull, 37ul, 18444473444759240704ull, 43ul, 6364136223846793005ull>, std::__1::random_device> >(ThreadedRNG64<std::__1::mersenne_twister_engine<unsigned long long, 64ul, 312ul, 156ul, 31ul, 13043109905998158313ull, 29ul, 6148914691236517205ull, 17ul, 8202884508482404352ull, 37ul, 18444473444759240704ull, 43ul, 6364136223846793005ull>, std::__1::random_device>&, double*, int, int)
0000000000054d50 T void generate_array<0ul, double, ThreadedRNG64<std::__1::linear_congruential_engine<unsigned long long, 6364136223846793005ull, 1442695040888963407ull, 0ull>, std::__1::random_device> >(ThreadedRNG64<std::__1::linear_congruential_engine<unsigned long long, 6364136223846793005ull, 1442695040888963407ull, 0ull>, std::__1::random_device>&, double*, int, int)
0000000000019660 T void generate_array<0ul, long double, ThreadedRNG64<std::__1::mersenne_twister_engine<unsigned long long, 64ul, 312ul, 156ul, 31ul, 13043109905998158313ull, 29ul, 6148914691236517205ull, 17ul, 8202884508482404352ull, 37ul, 18444473444759240704ull, 43ul, 6364136223846793005ull>, std::__1::random_device> >(ThreadedRNG64<std::__1::mersenne_twister_engine<unsigned long long, 64ul, 312ul, 156ul, 31ul, 13043109905998158313ull, 29ul, 6148914691236517205ull, 17ul, 8202884508482404352ull, 37ul, 18444473444759240704ull, 43ul, 6364136223846793005ull>, std::__1::random_device>&, long double*, int, int)
000000000002a180 T void generate_array<0ul, float, ThreadedRNG64<SplitMix64, std::__1::random_device> >(ThreadedRNG64<SplitMix64, std::__1::random_device>&, float*, int, int)
000000000002e960 T void generate_array<0ul, float, ThreadedRNG64<Xoshiro256StarStar, std::__1::random_device> >(ThreadedRNG64<Xoshiro256StarStar, std::__1::random_device>&, float*, int, int)
00000000000323b0 T void generate_array<0ul, float, ThreadedRNG64<pcg_detail::engine<unsigned long long, unsigned __int128, pcg_detail::xsl_rr_mixin<unsigned long long, unsigned __int128>, false, pcg_detail::specific_stream<unsigned __int128>, pcg_detail::default_multiplier<unsigned __int128> >, std::__1::random_device> >(ThreadedRNG64<pcg_detail::engine<unsigned long long, unsigned __int128, pcg_detail::xsl_rr_mixin<unsigned long long, unsigned __int128>, false, pcg_detail::specific_stream<unsigned __int128>, pcg_detail::default_multiplier<unsigned __int128> >, std::__1::random_device>&, float*, int, int)
00000000000154a0 T void generate_array<0ul, float, ThreadedRNG64<std::__1::mersenne_twister_engine<unsigned long long, 64ul, 312ul, 156ul, 31ul, 13043109905998158313ull, 29ul, 6148914691236517205ull, 17ul, 8202884508482404352ull, 37ul, 18444473444759240704ull, 43ul, 6364136223846793005ull>, std::__1::random_device> >(ThreadedRNG64<std::__1::mersenne_twister_engine<unsigned long long, 64ul, 312ul, 156ul, 31ul, 13043109905998158313ull, 29ul, 6148914691236517205ull, 17ul, 8202884508482404352ull, 37ul, 18444473444759240704ull, 43ul, 6364136223846793005ull>, std::__1::random_device>&, float*, int, int)
0000000000030690 T void generate_array<0ul, float, ThreadedRNG64<std::__1::linear_congruential_engine<unsigned long long, 6364136223846793005ull, 1442695040888963407ull, 0ull>, std::__1::random_device> >(ThreadedRNG64<std::__1::linear_congruential_engine<unsigned long long, 6364136223846793005ull, 1442695040888963407ull, 0ull>, std::__1::random_device>&, float*, int, int)
000000000004f610 T void generate_array<1ul, double, ThreadedRNG64<SplitMix64, std::__1::random_device> >(ThreadedRNG64<SplitMix64, std::__1::random_device>&, double*, int, int)
00000000000533c0 T void generate_array<1ul, double, ThreadedRNG64<Xoshiro256StarStar, std::__1::random_device> >(ThreadedRNG64<Xoshiro256StarStar, std::__1::random_device>&, double*, int, int)
0000000000056b20 T void generate_array<1ul, double, ThreadedRNG64<pcg_detail::engine<unsigned long long, unsigned __int128, pcg_detail::xsl_rr_mixin<unsigned long long, unsigned __int128>, false, pcg_detail::specific_stream<unsigned __int128>, pcg_detail::default_multiplier<unsigned __int128> >, std::__1::random_device> >(ThreadedRNG64<pcg_detail::engine<unsigned long long, unsigned __int128, pcg_detail::xsl_rr_mixin<unsigned long long, unsigned __int128>, false, pcg_detail::specific_stream<unsigned __int128>, pcg_detail::default_multiplier<unsigned __int128> >, std::__1::random_device>&, double*, int, int)
0000000000058520 T void generate_array<1ul, double, ThreadedRNG64<std::__1::mersenne_twister_engine<unsigned long long, 64ul, 312ul, 156ul, 31ul, 13043109905998158313ull, 29ul, 6148914691236517205ull, 17ul, 8202884508482404352ull, 37ul, 18444473444759240704ull, 43ul, 6364136223846793005ull>, std::__1::random_device> >(ThreadedRNG64<std::__1::mersenne_twister_engine<unsigned long long, 64ul, 312ul, 156ul, 31ul, 13043109905998158313ull, 29ul, 6148914691236517205ull, 17ul, 8202884508482404352ull, 37ul, 18444473444759240704ull, 43ul, 6364136223846793005ull>, std::__1::random_device>&, double*, int, int)
0000000000054fa0 T void generate_array<1ul, double, ThreadedRNG64<std::__1::linear_congruential_engine<unsigned long long, 6364136223846793005ull, 1442695040888963407ull, 0ull>, std::__1::random_device> >(ThreadedRNG64<std::__1::linear_congruential_engine<unsigned long long, 6364136223846793005ull, 1442695040888963407ull, 0ull>, std::__1::random_device>&, double*, int, int)
000000000002a510 T void generate_array<1ul, float, ThreadedRNG64<SplitMix64, std::__1::random_device> >(ThreadedRNG64<SplitMix64, std::__1::random_device>&, float*, int, int)
000000000002ed00 T void generate_array<1ul, float, ThreadedRNG64<Xoshiro256StarStar, std::__1::random_device> >(ThreadedRNG64<Xoshiro256StarStar, std::__1::random_device>&, float*, int, int)
0000000000032750 T void generate_array<1ul, float, ThreadedRNG64<pcg_detail::engine<unsigned long long, unsigned __int128, pcg_detail::xsl_rr_mixin<unsigned long long, unsigned __int128>, false, pcg_detail::specific_stream<unsigned __int128>, pcg_detail::default_multiplier<unsigned __int128> >, std::__1::random_device> >(ThreadedRNG64<pcg_detail::engine<unsigned long long, unsigned __int128, pcg_detail::xsl_rr_mixin<unsigned long long, unsigned __int128>, false, pcg_detail::specific_stream<unsigned __int128>, pcg_detail::default_multiplier<unsigned __int128> >, std::__1::random_device>&, float*, int, int)
00000000000340e0 T void generate_array<1ul, float, ThreadedRNG64<std::__1::mersenne_twister_engine<unsigned long long, 64ul, 312ul, 156ul, 31ul, 13043109905998158313ull, 29ul, 6148914691236517205ull, 17ul, 8202884508482404352ull, 37ul, 18444473444759240704ull, 43ul, 6364136223846793005ull>, std::__1::random_device> >(ThreadedRNG64<std::__1::mersenne_twister_engine<unsigned long long, 64ul, 312ul, 156ul, 31ul, 13043109905998158313ull, 29ul, 6148914691236517205ull, 17ul, 8202884508482404352ull, 37ul, 18444473444759240704ull, 43ul, 6364136223846793005ull>, std::__1::random_device>&, float*, int, int)
0000000000030a00 T void generate_array<1ul, float, ThreadedRNG64<std::__1::linear_congruential_engine<unsigned long long, 6364136223846793005ull, 1442695040888963407ull, 0ull>, std::__1::random_device> >(ThreadedRNG64<std::__1::linear_congruential_engine<unsigned long long, 6364136223846793005ull, 1442695040888963407ull, 0ull>, std::__1::random_device>&, float*, int, int)
000000000004e720 T int trace_estimator<false, double, SparseEigenLinearOperator<double> const, ThreadedRNG64<SplitMix64, std::__1::random_device>, std::__1::identity const&>(SparseEigenLinearOperator<double> const*, double const*, int, std::__1::identity const&, ThreadedRNG64<SplitMix64, std::__1::random_device>&, int, int, int, double, int, int, double, double, double, double, int, double*, double*, double**, int*, int*, int*, int*, double&)
0000000000061690 T __Z15trace_estimatorILb0EdK25SparseEigenLinearOperatorIdE13ThreadedRNG64I10SplitMix64NSt3__113random_deviceEERKZ14_trace_param_fILb0EdS1_EvPKT1_RKN8pybind117array_tIT0_Li17EEEmimSE_mmSE_SE_SE_SE_mmiRSF_SI_SI_RNSD_IiLi16EEESK_SK_SK_RSE_RKNSC_6kwargsEEUldE0_EiPS9_PKSE_iOT3_RT2_iiiSE_iiSE_SE_SE_SE_iPSE_SZ_PSZ_PiS11_S11_S11_SL_
0000000000067fe0 T __Z15trace_estimatorILb0EdK25SparseEigenLinearOperatorIdE13ThreadedRNG64I10SplitMix64NSt3__113random_deviceEERKZ14_trace_param_fILb0EdS1_EvPKT1_RKN8pybind117array_tIT0_Li17EEEmimSE_mmSE_SE_SE_SE_mmiRSF_SI_SI_RNSD_IiLi16EEESK_SK_SK_RSE_RKNSC_6kwargsEEUldE1_EiPS9_PKSE_iOT3_RT2_iiiSE_iiSE_SE_SE_SE_iPSE_SZ_PSZ_PiS11_S11_S11_SL_
000000000005b330 T __Z15trace_estimatorILb0EdK25SparseEigenLinearOperatorIdE13ThreadedRNG64I10SplitMix64NSt3__113random_deviceEERKZ14_trace_param_fILb0EdS1_EvPKT1_RKN8pybind117array_tIT0_Li17EEEmimSE_mmSE_SE_SE_SE_mmiRSF_SI_SI_RNSD_IiLi16EEESK_SK_SK_RSE_RKNSC_6kwargsEEUldE_EiPS9_PKSE_iOT3_RT2_iiiSE_iiSE_SE_SE_SE_iPSE_SZ_PSZ_PiS11_S11_S11_SL_
00000000000524c0 T int trace_estimator<false, double, SparseEigenLinearOperator<double> const, ThreadedRNG64<Xoshiro256StarStar, std::__1::random_device>, std::__1::identity const&>(SparseEigenLinearOperator<double> const*, double const*, int, std::__1::identity const&, ThreadedRNG64<Xoshiro256StarStar, std::__1::random_device>&, int, int, int, double, int, int, double, double, double, double, int, double*, double*, double**, int*, int*, int*, int*, double&)
0000000000062390 T __Z15trace_estimatorILb0EdK25SparseEigenLinearOperatorIdE13ThreadedRNG64I18Xoshiro256StarStarNSt3__113random_deviceEERKZ14_trace_param_fILb0EdS1_EvPKT1_RKN8pybind117array_tIT0_Li17EEEmimSE_mmSE_SE_SE_SE_mmiRSF_SI_SI_RNSD_IiLi16EEESK_SK_SK_RSE_RKNSC_6kwargsEEUldE0_EiPS9_PKSE_iOT3_RT2_iiiSE_iiSE_SE_SE_SE_iPSE_SZ_PSZ_PiS11_S11_S11_SL_
0000000000068c00 T __Z15trace_estimatorILb0EdK25SparseEigenLinearOperatorIdE13ThreadedRNG64I18Xoshiro256StarStarNSt3__113random_deviceEERKZ14_trace_param_fILb0EdS1_EvPKT1_RKN8pybind117array_tIT0_Li17EEEmimSE_mmSE_SE_SE_SE_mmiRSF_SI_SI_RNSD_IiLi16EEESK_SK_SK_RSE_RKNSC_6kwargsEEUldE1_EiPS9_PKSE_iOT3_RT2_iiiSE_iiSE_SE_SE_SE_iPSE_SZ_PSZ_PiS11_S11_S11_SL_
000000000005bf00 T __Z15trace_estimatorILb0EdK25SparseEigenLinearOperatorIdE13ThreadedRNG64I18Xoshiro256StarStarNSt3__113random_deviceEERKZ14_trace_param_fILb0EdS1_EvPKT1_RKN8pybind117array_tIT0_Li17EEEmimSE_mmSE_SE_SE_SE_mmiRSF_SI_SI_RNSD_IiLi16EEESK_SK_SK_RSE_RKNSC_6kwargsEEUldE_EiPS9_PKSE_iOT3_RT2_iiiSE_iiSE_SE_SE_SE_iPSE_SZ_PSZ_PiS11_S11_S11_SL_
0000000000055c20 T int trace_estimator<false, double, SparseEigenLinearOperator<double> const, ThreadedRNG64<pcg_detail::engine<unsigned long long, unsigned __int128, pcg_detail::xsl_rr_mixin<unsigned long long, unsigned __int128>, false, pcg_detail::specific_stream<unsigned __int128>, pcg_detail::default_multiplier<unsigned __int128> >, std::__1::random_device>, std::__1::identity const&>(SparseEigenLinearOperator<double> const*, double const*, int, std::__1::identity const&, ThreadedRNG64<pcg_detail::engine<unsigned long long, unsigned __int128, pcg_detail::xsl_rr_mixin<unsigned long long, unsigned __int128>, false, pcg_detail::specific_stream<unsigned __int128>, pcg_detail::default_multiplier<unsigned __int128> >, std::__1::random_device>&, int, int, int, double, int, int, double, double, double, double, int, double*, double*, double**, int*, int*, int*, int*, double&)
0000000000063d90 T __Z15trace_estimatorILb0EdK25SparseEigenLinearOperatorIdE13ThreadedRNG64IN10pcg_detail6engineIyoNS4_12xsl_rr_mixinIyoEELb0ENS4_15specific_streamIoEENS4_18default_multiplierIoEEEENSt3__113random_deviceEERKZ14_trace_param_fILb0EdS1_EvPKT1_RKN8pybind117array_tIT0_Li17EEEmimSM_mmSM_SM_SM_SM_mmiRSN_SQ_SQ_RNSL_IiLi16EEESS_SS_SS_RSM_RKNSK_6kwargsEEUldE0_EiPSH_PKSM_iOT3_RT2_iiiSM_iiSM_SM_SM_SM_iPSM_S17_PS17_PiS19_S19_S19_ST_
000000000006a440 T __Z15trace_estimatorILb0EdK25SparseEigenLinearOperatorIdE13ThreadedRNG64IN10pcg_detail6engineIyoNS4_12xsl_rr_mixinIyoEELb0ENS4_15specific_streamIoEENS4_18default_multiplierIoEEEENSt3__113random_deviceEERKZ14_trace_param_fILb0EdS1_EvPKT1_RKN8pybind117array_tIT0_Li17EEEmimSM_mmSM_SM_SM_SM_mmiRSN_SQ_SQ_RNSL_IiLi16EEESS_SS_SS_RSM_RKNSK_6kwargsEEUldE1_EiPSH_PKSM_iOT3_RT2_iiiSM_iiSM_SM_SM_SM_iPSM_S17_PS17_PiS19_S19_S19_ST_
000000000005d6a0 T __Z15trace_estimatorILb0EdK25SparseEigenLinearOperatorIdE13ThreadedRNG64IN10pcg_detail6engineIyoNS4_12xsl_rr_mixinIyoEELb0ENS4_15specific_streamIoEENS4_18default_multiplierIoEEEENSt3__113random_deviceEERKZ14_trace_param_fILb0EdS1_EvPKT1_RKN8pybind117array_tIT0_Li17EEEmimSM_mmSM_SM_SM_SM_mmiRSN_SQ_SQ_RNSL_IiLi16EEESS_SS_SS_RSM_RKNSK_6kwargsEEUldE_EiPSH_PKSM_iOT3_RT2_iiiSM_iiSM_SM_SM_SM_iPSM_S17_PS17_PiS19_S19_S19_ST_
00000000000578b0 T int trace_estimator<false, double, SparseEigenLinearOperator<double> const, ThreadedRNG64<std::__1::mersenne_twister_engine<unsigned long long, 64ul, 312ul, 156ul, 31ul, 13043109905998158313ull, 29ul, 6148914691236517205ull, 17ul, 8202884508482404352ull, 37ul, 18444473444759240704ull, 43ul, 6364136223846793005ull>, std::__1::random_device>, std::__1::identity const&>(SparseEigenLinearOperator<double> const*, double const*, int, std::__1::identity const&, ThreadedRNG64<std::__1::mersenne_twister_engine<unsigned long long, 64ul, 312ul, 156ul, 31ul, 13043109905998158313ull, 29ul, 6148914691236517205ull, 17ul, 8202884508482404352ull, 37ul, 18444473444759240704ull, 43ul, 6364136223846793005ull>, std::__1::random_device>&, int, int, int, double, int, int, double, double, double, double, int, double*, double*, double**, int*, int*, int*, int*, double&)
0000000000064a90 T __Z15trace_estimatorILb0EdK25SparseEigenLinearOperatorIdE13ThreadedRNG64INSt3__123mersenne_twister_engineIyLm64ELm312ELm156ELm31ELy13043109905998158313ELm29ELy6148914691236517205ELm17ELy8202884508482404352ELm37ELy18444473444759240704ELm43ELy6364136223846793005EEENS4_13random_deviceEERKZ14_trace_param_fILb0EdS1_EvPKT1_RKN8pybind117array_tIT0_Li17EEEmimSF_mmSF_SF_SF_SF_mmiRSG_SJ_SJ_RNSE_IiLi16EEESL_SL_SL_RSF_RKNSD_6kwargsEEUldE0_EiPSA_PKSF_iOT3_RT2_iiiSF_iiSF_SF_SF_SF_iPSF_S10_PS10_PiS12_S12_S12_SM_
000000000006b060 T __Z15trace_estimatorILb0EdK25SparseEigenLinearOperatorIdE13ThreadedRNG64INSt3__123mersenne_twister_engineIyLm64ELm312ELm156ELm31ELy13043109905998158313ELm29ELy6148914691236517205ELm17ELy8202884508482404352ELm37ELy18444473444759240704ELm43ELy6364136223846793005EEENS4_13random_deviceEERKZ14_trace_param_fILb0EdS1_EvPKT1_RKN8pybind117array_tIT0_Li17EEEmimSF_mmSF_SF_SF_SF_mmiRSG_SJ_SJ_RNSE_IiLi16EEESL_SL_SL_RSF_RKNSD_6kwargsEEUldE1_EiPSA_PKSF_iOT3_RT2_iiiSF_iiSF_SF_SF_SF_iPSF_S10_PS10_PiS12_S12_S12_SM_
000000000005e270 T __Z15trace_estimatorILb0EdK25SparseEigenLinearOperatorIdE13ThreadedRNG64INSt3__123mersenne_twister_engineIyLm64ELm312ELm156ELm31ELy13043109905998158313ELm29ELy6148914691236517205ELm17ELy8202884508482404352ELm37ELy18444473444759240704ELm43ELy6364136223846793005EEENS4_13random_deviceEERKZ14_trace_param_fILb0EdS1_EvPKT1_RKN8pybind117array_tIT0_Li17EEEmimSF_mmSF_SF_SF_SF_mmiRSG_SJ_SJ_RNSE_IiLi16EEESL_SL_SL_RSF_RKNSD_6kwargsEEUldE_EiPSA_PKSF_iOT3_RT2_iiiSF_iiSF_SF_SF_SF_iPSF_S10_PS10_PiS12_S12_S12_SM_
00000000000540e0 T int trace_estimator<false, double, SparseEigenLinearOperator<double> const, ThreadedRNG64<std::__1::linear_congruential_engine<unsigned long long, 6364136223846793005ull, 1442695040888963407ull, 0ull>, std::__1::random_device>, std::__1::identity const&>(SparseEigenLinearOperator<double> const*, double const*, int, std::__1::identity const&, ThreadedRNG64<std::__1::linear_congruential_engine<unsigned long long, 6364136223846793005ull, 1442695040888963407ull, 0ull>, std::__1::random_device>&, int, int, int, double, int, int, double, double, double, double, int, double*, double*, double**, int*, int*, int*, int*, double&)
0000000000063090 T __Z15trace_estimatorILb0EdK25SparseEigenLinearOperatorIdE13ThreadedRNG64INSt3__126linear_congruential_engineIyLy6364136223846793005ELy1442695040888963407ELy0EEENS4_13random_deviceEERKZ14_trace_param_fILb0EdS1_EvPKT1_RKN8pybind117array_tIT0_Li17EEEmimSF_mmSF_SF_SF_SF_mmiRSG_SJ_SJ_RNSE_IiLi16EEESL_SL_SL_RSF_RKNSD_6kwargsEEUldE0_EiPSA_PKSF_iOT3_RT2_iiiSF_iiSF_SF_SF_SF_iPSF_S10_PS10_PiS12_S12_S12_SM_
0000000000069820 T __Z15trace_estimatorILb0EdK25SparseEigenLinearOperatorIdE13ThreadedRNG64INSt3__126linear_congruential_engineIyLy6364136223846793005ELy1442695040888963407ELy0EEENS4_13random_deviceEERKZ14_trace_param_fILb0EdS1_EvPKT1_RKN8pybind117array_tIT0_Li17EEEmimSF_mmSF_SF_SF_SF_mmiRSG_SJ_SJ_RNSE_IiLi16EEESL_SL_SL_RSF_RKNSD_6kwargsEEUldE1_EiPSA_PKSF_iOT3_RT2_iiiSF_iiSF_SF_SF_SF_iPSF_S10_PS10_PiS12_S12_S12_SM_
000000000005cad0 T __Z15trace_estimatorILb0EdK25SparseEigenLinearOperatorIdE13ThreadedRNG64INSt3__126linear_congruential_engineIyLy6364136223846793005ELy1442695040888963407ELy0EEENS4_13random_deviceEERKZ14_trace_param_fILb0EdS1_EvPKT1_RKN8pybind117array_tIT0_Li17EEEmimSF_mmSF_SF_SF_SF_mmiRSG_SJ_SJ_RNSE_IiLi16EEESL_SL_SL_RSF_RKNSD_6kwargsEEUldE_EiPSA_PKSF_iOT3_RT2_iiiSF_iiSF_SF_SF_SF_iPSF_S10_PS10_PiS12_S12_S12_SM_
00000000000288d0 T int trace_estimator<false, float, SparseEigenLinearOperator<float> const, ThreadedRNG64<SplitMix64, std::__1::random_device>, std::__1::identity const&>(SparseEigenLinearOperator<float> const*, float const*, int, std::__1::identity const&, ThreadedRNG64<SplitMix64, std::__1::random_device>&, int, int, int, float, int, int, float, float, float, float, int, float*, float*, float**, int*, int*, int*, int*, float&)
000000000003d410 T __Z15trace_estimatorILb0EfK25SparseEigenLinearOperatorIfE13ThreadedRNG64I10SplitMix64NSt3__113random_deviceEERKZ14_trace_param_fILb0EfS1_EvPKT1_RKN8pybind117array_tIT0_Li17EEEmimSE_mmSE_SE_SE_SE_mmiRSF_SI_SI_RNSD_IiLi16EEESK_SK_SK_RSE_RKNSC_6kwargsEEUlfE0_EiPS9_PKSE_iOT3_RT2_iiiSE_iiSE_SE_SE_SE_iPSE_SZ_PSZ_PiS11_S11_S11_SL_
0000000000043b30 T __Z15trace_estimatorILb0EfK25SparseEigenLinearOperatorIfE13ThreadedRNG64I10SplitMix64NSt3__113random_deviceEERKZ14_trace_param_fILb0EfS1_EvPKT1_RKN8pybind117array_tIT0_Li17EEEmimSE_mmSE_SE_SE_SE_mmiRSF_SI_SI_RNSD_IiLi16EEESK_SK_SK_RSE_RKNSC_6kwargsEEUlfE1_EiPS9_PKSE_iOT3_RT2_iiiSE_iiSE_SE_SE_SE_iPSE_SZ_PSZ_PiS11_S11_S11_SL_
00000000000371f0 T __Z15trace_estimatorILb0EfK25SparseEigenLinearOperatorIfE13ThreadedRNG64I10SplitMix64NSt3__113random_deviceEERKZ14_trace_param_fILb0EfS1_EvPKT1_RKN8pybind117array_tIT0_Li17EEEmimSE_mmSE_SE_SE_SE_mmiRSF_SI_SI_RNSD_IiLi16EEESK_SK_SK_RSE_RKNSC_6kwargsEEUlfE_EiPS9_PKSE_iOT3_RT2_iiiSE_iiSE_SE_SE_SE_iPSE_SZ_PSZ_PiS11_S11_S11_SL_
000000000002dd10 T int trace_estimator<false, float, SparseEigenLinearOperator<float> const, ThreadedRNG64<Xoshiro256StarStar, std::__1::random_device>, std::__1::identity const&>(SparseEigenLinearOperator<float> const*, float const*, int, std::__1::identity const&, ThreadedRNG64<Xoshiro256StarStar, std::__1::random_device>&, int, int, int, float, int, int, float, float, float, float, int, float*, float*, float**, int*, int*, int*, int*, float&)
000000000003e0a0 T __Z15trace_estimatorILb0EfK25SparseEigenLinearOperatorIfE13ThreadedRNG64I18Xoshiro256StarStarNSt3__113random_deviceEERKZ14_trace_param_fILb0EfS1_EvPKT1_RKN8pybind117array_tIT0_Li17EEEmimSE_mmSE_SE_SE_SE_mmiRSF_SI_SI_RNSD_IiLi16EEESK_SK_SK_RSE_RKNSC_6kwargsEEUlfE0_EiPS9_PKSE_iOT3_RT2_iiiSE_iiSE_SE_SE_SE_iPSE_SZ_PSZ_PiS11_S11_S11_SL_
0000000000044720 T __Z15trace_estimatorILb0EfK25SparseEigenLinearOperatorIfE13ThreadedRNG64I18Xoshiro256StarStarNSt3__113random_deviceEERKZ14_trace_param_fILb0EfS1_EvPKT1_RKN8pybind117array_tIT0_Li17EEEmimSE_mmSE_SE_SE_SE_mmiRSF_SI_SI_RNSD_IiLi16EEESK_SK_SK_RSE_RKNSC_6kwargsEEUlfE1_EiPS9_PKSE_iOT3_RT2_iiiSE_iiSE_SE_SE_SE_iPSE_SZ_PSZ_PiS11_S11_S11_SL_
0000000000037d80 T __Z15trace_estimatorILb0EfK25SparseEigenLinearOperatorIfE13ThreadedRNG64I18Xoshiro256StarStarNSt3__113random_deviceEERKZ14_trace_param_fILb0EfS1_EvPKT1_RKN8pybind117array_tIT0_Li17EEEmimSE_mmSE_SE_SE_SE_mmiRSF_SI_SI_RNSD_IiLi16EEESK_SK_SK_RSE_RKNSC_6kwargsEEUlfE_EiPS9_PKSE_iOT3_RT2_iiiSE_iiSE_SE_SE_SE_iPSE_SZ_PSZ_PiS11_S11_S11_SL_
0000000000031760 T int trace_estimator<false, float, SparseEigenLinearOperator<float> const, ThreadedRNG64<pcg_detail::engine<unsigned long long, unsigned __int128, pcg_detail::xsl_rr_mixin<unsigned long long, unsigned __int128>, false, pcg_detail::specific_stream<unsigned __int128>, pcg_detail::default_multiplier<unsigned __int128> >, std::__1::random_device>, std::__1::identity const&>(SparseEigenLinearOperator<float> const*, float const*, int, std::__1::identity const&, ThreadedRNG64<pcg_detail::engine<unsigned long long, unsigned __int128, pcg_detail::xsl_rr_mixin<unsigned long long, unsigned __int128>, false, pcg_detail::specific_stream<unsigned __int128>, pcg_detail::default_multiplier<unsigned __int128> >, std::__1::random_device>&, int, int, int, float, int, int, float, float, float, float, int, float*, float*, float**, int*, int*, int*, int*, float&)
000000000003f9c0 T __Z15trace_estimatorILb0EfK25SparseEigenLinearOperatorIfE13ThreadedRNG64IN10pcg_detail6engineIyoNS4_12xsl_rr_mixinIyoEELb0ENS4_15specific_streamIoEENS4_18default_multiplierIoEEEENSt3__113random_deviceEERKZ14_trace_param_fILb0EfS1_EvPKT1_RKN8pybind117array_tIT0_Li17EEEmimSM_mmSM_SM_SM_SM_mmiRSN_SQ_SQ_RNSL_IiLi16EEESS_SS_SS_RSM_RKNSK_6kwargsEEUlfE0_EiPSH_PKSM_iOT3_RT2_iiiSM_iiSM_SM_SM_SM_iPSM_S17_PS17_PiS19_S19_S19_ST_
0000000000045f00 T __Z15trace_estimatorILb0EfK25SparseEigenLinearOperatorIfE13ThreadedRNG64IN10pcg_detail6engineIyoNS4_12xsl_rr_mixinIyoEELb0ENS4_15specific_streamIoEENS4_18default_multiplierIoEEEENSt3__113random_deviceEERKZ14_trace_param_fILb0EfS1_EvPKT1_RKN8pybind117array_tIT0_Li17EEEmimSM_mmSM_SM_SM_SM_mmiRSN_SQ_SQ_RNSL_IiLi16EEESS_SS_SS_RSM_RKNSK_6kwargsEEUlfE1_EiPSH_PKSM_iOT3_RT2_iiiSM_iiSM_SM_SM_SM_iPSM_S17_PS17_PiS19_S19_S19_ST_
00000000000394a0 T __Z15trace_estimatorILb0EfK25SparseEigenLinearOperatorIfE13ThreadedRNG64IN10pcg_detail6engineIyoNS4_12xsl_rr_mixinIyoEELb0ENS4_15specific_streamIoEENS4_18default_multiplierIoEEEENSt3__113random_deviceEERKZ14_trace_param_fILb0EfS1_EvPKT1_RKN8pybind117array_tIT0_Li17EEEmimSM_mmSM_SM_SM_SM_mmiRSN_SQ_SQ_RNSL_IiLi16EEESS_SS_SS_RSM_RKNSK_6kwargsEEUlfE_EiPSH_PKSM_iOT3_RT2_iiiSM_iiSM_SM_SM_SM_iPSM_S17_PS17_PiS19_S19_S19_ST_
0000000000033490 T int trace_estimator<false, float, SparseEigenLinearOperator<float> const, ThreadedRNG64<std::__1::mersenne_twister_engine<unsigned long long, 64ul, 312ul, 156ul, 31ul, 13043109905998158313ull, 29ul, 6148914691236517205ull, 17ul, 8202884508482404352ull, 37ul, 18444473444759240704ull, 43ul, 6364136223846793005ull>, std::__1::random_device>, std::__1::identity const&>(SparseEigenLinearOperator<float> const*, float const*, int, std::__1::identity const&, ThreadedRNG64<std::__1::mersenne_twister_engine<unsigned long long, 64ul, 312ul, 156ul, 31ul, 13043109905998158313ull, 29ul, 6148914691236517205ull, 17ul, 8202884508482404352ull, 37ul, 18444473444759240704ull, 43ul, 6364136223846793005ull>, std::__1::random_device>&, int, int, int, float, int, int, float, float, float, float, int, float*, float*, float**, int*, int*, int*, int*, float&)
0000000000040650 T __Z15trace_estimatorILb0EfK25SparseEigenLinearOperatorIfE13ThreadedRNG64INSt3__123mersenne_twister_engineIyLm64ELm312ELm156ELm31ELy13043109905998158313ELm29ELy6148914691236517205ELm17ELy8202884508482404352ELm37ELy18444473444759240704ELm43ELy6364136223846793005EEENS4_13random_deviceEERKZ14_trace_param_fILb0EfS1_EvPKT1_RKN8pybind117array_tIT0_Li17EEEmimSF_mmSF_SF_SF_SF_mmiRSG_SJ_SJ_RNSE_IiLi16EEESL_SL_SL_RSF_RKNSD_6kwargsEEUlfE0_EiPSA_PKSF_iOT3_RT2_iiiSF_iiSF_SF_SF_SF_iPSF_S10_PS10_PiS12_S12_S12_SM_
0000000000046af0 T __Z15trace_estimatorILb0EfK25SparseEigenLinearOperatorIfE13ThreadedRNG64INSt3__123mersenne_twister_engineIyLm64ELm312ELm156ELm31ELy13043109905998158313ELm29ELy6148914691236517205ELm17ELy8202884508482404352ELm37ELy18444473444759240704ELm43ELy6364136223846793005EEENS4_13random_deviceEERKZ14_trace_param_fILb0EfS1_EvPKT1_RKN8pybind117array_tIT0_Li17EEEmimSF_mmSF_SF_SF_SF_mmiRSG_SJ_SJ_RNSE_IiLi16EEESL_SL_SL_RSF_RKNSD_6kwargsEEUlfE1_EiPSA_PKSF_iOT3_RT2_iiiSF_iiSF_SF_SF_SF_iPSF_S10_PS10_PiS12_S12_S12_SM_
000000000003a030 T __Z15trace_estimatorILb0EfK25SparseEigenLinearOperatorIfE13ThreadedRNG64INSt3__123mersenne_twister_engineIyLm64ELm312ELm156ELm31ELy13043109905998158313ELm29ELy6148914691236517205ELm17ELy8202884508482404352ELm37ELy18444473444759240704ELm43ELy6364136223846793005EEENS4_13random_deviceEERKZ14_trace_param_fILb0EfS1_EvPKT1_RKN8pybind117array_tIT0_Li17EEEmimSF_mmSF_SF_SF_SF_mmiRSG_SJ_SJ_RNSE_IiLi16EEESL_SL_SL_RSF_RKNSD_6kwargsEEUlfE_EiPSA_PKSF_iOT3_RT2_iiiSF_iiSF_SF_SF_SF_iPSF_S10_PS10_PiS12_S12_S12_SM_
000000000002fa40 T int trace_estimator<false, float, SparseEigenLinearOperator<float> const, ThreadedRNG64<std::__1::linear_congruential_engine<unsigned long long, 6364136223846793005ull, 1442695040888963407ull, 0ull>, std::__1::random_device>, std::__1::identity const&>(SparseEigenLinearOperator<float> const*, float const*, int, std::__1::identity const&, ThreadedRNG64<std::__1::linear_congruential_engine<unsigned long long, 6364136223846793005ull, 1442695040888963407ull, 0ull>, std::__1::random_device>&, int, int, int, float, int, int, float, float, float, float, int, float*, float*, float**, int*, int*, int*, int*, float&)
000000000003ed30 T __Z15trace_estimatorILb0EfK25SparseEigenLinearOperatorIfE13ThreadedRNG64INSt3__126linear_congruential_engineIyLy6364136223846793005ELy1442695040888963407ELy0EEENS4_13random_deviceEERKZ14_trace_param_fILb0EfS1_EvPKT1_RKN8pybind117array_tIT0_Li17EEEmimSF_mmSF_SF_SF_SF_mmiRSG_SJ_SJ_RNSE_IiLi16EEESL_SL_SL_RSF_RKNSD_6kwargsEEUlfE0_EiPSA_PKSF_iOT3_RT2_iiiSF_iiSF_SF_SF_SF_iPSF_S10_PS10_PiS12_S12_S12_SM_
0000000000045310 T __Z15trace_estimatorILb0EfK25SparseEigenLinearOperatorIfE13ThreadedRNG64INSt3__126linear_congruential_engineIyLy6364136223846793005ELy1442695040888963407ELy0EEENS4_13random_deviceEERKZ14_trace_param_fILb0EfS1_EvPKT1_RKN8pybind117array_tIT0_Li17EEEmimSF_mmSF_SF_SF_SF_mmiRSG_SJ_SJ_RNSE_IiLi16EEESL_SL_SL_RSF_RKNSD_6kwargsEEUlfE1_EiPSA_PKSF_iOT3_RT2_iiiSF_iiSF_SF_SF_SF_iPSF_S10_PS10_PiS12_S12_S12_SM_
0000000000038910 T __Z15trace_estimatorILb0EfK25SparseEigenLinearOperatorIfE13ThreadedRNG64INSt3__126linear_congruential_engineIyLy6364136223846793005ELy1442695040888963407ELy0EEENS4_13random_deviceEERKZ14_trace_param_fILb0EfS1_EvPKT1_RKN8pybind117array_tIT0_Li17EEEmimSF_mmSF_SF_SF_SF_mmiRSG_SJ_SJ_RNSE_IiLi16EEESL_SL_SL_RSF_RKNSD_6kwargsEEUlfE_EiPSA_PKSF_iOT3_RT2_iiiSF_iiSF_SF_SF_SF_iPSF_S10_PS10_PiS12_S12_S12_SM_
00000000000f1230 T int trace_estimator<true, double, PyLinearOperator<double> const, ThreadedRNG64<SplitMix64, std::__1::random_device>, std::__1::identity const&>(PyLinearOperator<double> const*, double const*, int, std::__1::identity const&, ThreadedRNG64<SplitMix64, std::__1::random_device>&, int, int, int, double, int, int, double, double, double, double, int, double*, double*, double**, int*, int*, int*, int*, double&)
00000000000fd620 T __Z15trace_estimatorILb1EdK16PyLinearOperatorIdE13ThreadedRNG64I10SplitMix64NSt3__113random_deviceEERKZ14_trace_param_fILb1EdS1_EvPKT1_RKN8pybind117array_tIT0_Li17EEEmimSE_mmSE_SE_SE_SE_mmiRSF_SI_SI_RNSD_IiLi16EEESK_SK_SK_RSE_RKNSC_6kwargsEEUldE0_EiPS9_PKSE_iOT3_RT2_iiiSE_iiSE_SE_SE_SE_iPSE_SZ_PSZ_PiS11_S11_S11_SL_
0000000000103480 T __Z15trace_estimatorILb1EdK16PyLinearOperatorIdE13ThreadedRNG64I10SplitMix64NSt3__113random_deviceEERKZ14_trace_param_fILb1EdS1_EvPKT1_RKN8pybind117array_tIT0_Li17EEEmimSE_mmSE_SE_SE_SE_mmiRSF_SI_SI_RNSD_IiLi16EEESK_SK_SK_RSE_RKNSC_6kwargsEEUldE1_EiPS9_PKSE_iOT3_RT2_iiiSE_iiSE_SE_SE_SE_iPSE_SZ_PSZ_PiS11_S11_S11_SL_
00000000000f7d10 T __Z15trace_estimatorILb1EdK16PyLinearOperatorIdE13ThreadedRNG64I10SplitMix64NSt3__113random_deviceEERKZ14_trace_param_fILb1EdS1_EvPKT1_RKN8pybind117array_tIT0_Li17EEEmimSE_mmSE_SE_SE_SE_mmiRSF_SI_SI_RNSD_IiLi16EEESK_SK_SK_RSE_RKNSC_6kwargsEEUldE_EiPS9_PKSE_iOT3_RT2_iiiSE_iiSE_SE_SE_SE_iPSE_SZ_PSZ_PiS11_S11_S11_SL_
00000000000f2b80 T int trace_estimator<true, double, PyLinearOperator<double> const, ThreadedRNG64<Xoshiro256StarStar, std::__1::random_device>, std::__1::identity const&>(PyLinearOperator<double> const*, double const*, int, std::__1::identity const&, ThreadedRNG64<Xoshiro256StarStar, std::__1::random_device>&, int, int, int, double, int, int, double, double, double, double, int, double*, double*, double**, int*, int*, int*, int*, double&)
00000000000fe0f0 T __Z15trace_estimatorILb1EdK16PyLinearOperatorIdE13ThreadedRNG64I18Xoshiro256StarStarNSt3__113random_deviceEERKZ14_trace_param_fILb1EdS1_EvPKT1_RKN8pybind117array_tIT0_Li17EEEmimSE_mmSE_SE_SE_SE_mmiRSF_SI_SI_RNSD_IiLi16EEESK_SK_SK_RSE_RKNSC_6kwargsEEUldE0_EiPS9_PKSE_iOT3_RT2_iiiSE_iiSE_SE_SE_SE_iPSE_SZ_PSZ_PiS11_S11_S11_SL_
0000000000103eb0 T __Z15trace_estimatorILb1EdK16PyLinearOperatorIdE13ThreadedRNG64I18Xoshiro256StarStarNSt3__113random_deviceEERKZ14_trace_param_fILb1EdS1_EvPKT1_RKN8pybind117array_tIT0_Li17EEEmimSE_mmSE_SE_SE_SE_mmiRSF_SI_SI_RNSD_IiLi16EEESK_SK_SK_RSE_RKNSC_6kwargsEEUldE1_EiPS9_PKSE_iOT3_RT2_iiiSE_iiSE_SE_SE_SE_iPSE_SZ_PSZ_PiS11_S11_S11_SL_
00000000000f86d0 T __Z15trace_estimatorILb1EdK16PyLinearOperatorIdE13ThreadedRNG64I18Xoshiro256StarStarNSt3__113random_deviceEERKZ14_trace_param_fILb1EdS1_EvPKT1_RKN8pybind117array_tIT0_Li17EEEmimSE_mmSE_SE_SE_SE_mmiRSF_SI_SI_RNSD_IiLi16EEESK_SK_SK_RSE_RKNSC_6kwargsEEUldE_EiPS9_PKSE_iOT3_RT2_iiiSE_iiSE_SE_SE_SE_iPSE_SZ_PSZ_PiS11_S11_S11_SL_
00000000000f4020 T int trace_estimator<true, double, PyLinearOperator<double> const, ThreadedRNG64<pcg_detail::engine<unsigned long long, unsigned __int128, pcg_detail::xsl_rr_mixin<unsigned long long, unsigned __int128>, false, pcg_detail::specific_stream<unsigned __int128>, pcg_detail::default_multiplier<unsigned __int128> >, std::__1::random_device>, std::__1::identity const&>(PyLinearOperator<double> const*, double const*, int, std::__1::identity const&, ThreadedRNG64<pcg_detail::engine<unsigned long long, unsigned __int128, pcg_detail::xsl_rr_mixin<unsigned long long, unsigned __int128>, false, pcg_detail::specific_stream<unsigned __int128>, pcg_detail::default_multiplier<unsigned __int128> >, std::__1::random_device>&, int, int, int, double, int, int, double, double, double, double, int, double*, double*, double**, int*, int*, int*, int*, double&)
00000000000ff690 T __Z15trace_estimatorILb1EdK16PyLinearOperatorIdE13ThreadedRNG64IN10pcg_detail6engineIyoNS4_12xsl_rr_mixinIyoEELb0ENS4_15specific_streamIoEENS4_18default_multiplierIoEEEENSt3__113random_deviceEERKZ14_trace_param_fILb1EdS1_EvPKT1_RKN8pybind117array_tIT0_Li17EEEmimSM_mmSM_SM_SM_SM_mmiRSN_SQ_SQ_RNSL_IiLi16EEESS_SS_SS_RSM_RKNSK_6kwargsEEUldE0_EiPSH_PKSM_iOT3_RT2_iiiSM_iiSM_SM_SM_SM_iPSM_S17_PS17_PiS19_S19_S19_ST_
0000000000105310 T __Z15trace_estimatorILb1EdK16PyLinearOperatorIdE13ThreadedRNG64IN10pcg_detail6engineIyoNS4_12xsl_rr_mixinIyoEELb0ENS4_15specific_streamIoEENS4_18default_multiplierIoEEEENSt3__113random_deviceEERKZ14_trace_param_fILb1EdS1_EvPKT1_RKN8pybind117array_tIT0_Li17EEEmimSM_mmSM_SM_SM_SM_mmiRSN_SQ_SQ_RNSL_IiLi16EEESS_SS_SS_RSM_RKNSK_6kwargsEEUldE1_EiPSH_PKSM_iOT3_RT2_iiiSM_iiSM_SM_SM_SM_iPSM_S17_PS17_PiS19_S19_S19_ST_
00000000000f9a50 T __Z15trace_estimatorILb1EdK16PyLinearOperatorIdE13ThreadedRNG64IN10pcg_detail6engineIyoNS4_12xsl_rr_mixinIyoEELb0ENS4_15specific_streamIoEENS4_18default_multiplierIoEEEENSt3__113random_deviceEERKZ14_trace_param_fILb1EdS1_EvPKT1_RKN8pybind117array_tIT0_Li17EEEmimSM_mmSM_SM_SM_SM_mmiRSN_SQ_SQ_RNSL_IiLi16EEESS_SS_SS_RSM_RKNSK_6kwargsEEUldE_EiPSH_PKSM_iOT3_RT2_iiiSM_iiSM_SM_SM_SM_iPSM_S17_PS17_PiS19_S19_S19_ST_
00000000000f4a70 T int trace_estimator<true, double, PyLinearOperator<double> const, ThreadedRNG64<std::__1::mersenne_twister_engine<unsigned long long, 64ul, 312ul, 156ul, 31ul, 13043109905998158313ull, 29ul, 6148914691236517205ull, 17ul, 8202884508482404352ull, 37ul, 18444473444759240704ull, 43ul, 6364136223846793005ull>, std::__1::random_device>, std::__1::identity const&>(PyLinearOperator<double> const*, double const*, int, std::__1::identity const&, ThreadedRNG64<std::__1::mersenne_twister_engine<unsigned long long, 64ul, 312ul, 156ul, 31ul, 13043109905998158313ull, 29ul, 6148914691236517205ull, 17ul, 8202884508482404352ull, 37ul, 18444473444759240704ull, 43ul, 6364136223846793005ull>, std::__1::random_device>&, int, int, int, double, int, int, double, double, double, double, int, double*, double*, double**, int*, int*, int*, int*, double&)
0000000000100160 T __Z15trace_estimatorILb1EdK16PyLinearOperatorIdE13ThreadedRNG64INSt3__123mersenne_twister_engineIyLm64ELm312ELm156ELm31ELy13043109905998158313ELm29ELy6148914691236517205ELm17ELy8202884508482404352ELm37ELy18444473444759240704ELm43ELy6364136223846793005EEENS4_13random_deviceEERKZ14_trace_param_fILb1EdS1_EvPKT1_RKN8pybind117array_tIT0_Li17EEEmimSF_mmSF_SF_SF_SF_mmiRSG_SJ_SJ_RNSE_IiLi16EEESL_SL_SL_RSF_RKNSD_6kwargsEEUldE0_EiPSA_PKSF_iOT3_RT2_iiiSF_iiSF_SF_SF_SF_iPSF_S10_PS10_PiS12_S12_S12_SM_
0000000000105d40 T __Z15trace_estimatorILb1EdK16PyLinearOperatorIdE13ThreadedRNG64INSt3__123mersenne_twister_engineIyLm64ELm312ELm156ELm31ELy13043109905998158313ELm29ELy6148914691236517205ELm17ELy8202884508482404352ELm37ELy18444473444759240704ELm43ELy6364136223846793005EEENS4_13random_deviceEERKZ14_trace_param_fILb1EdS1_EvPKT1_RKN8pybind117array_tIT0_Li17EEEmimSF_mmSF_SF_SF_SF_mmiRSG_SJ_SJ_RNSE_IiLi16EEESL_SL_SL_RSF_RKNSD_6kwargsEEUldE1_EiPSA_PKSF_iOT3_RT2_iiiSF_iiSF_SF_SF_SF_iPSF_S10_PS10_PiS12_S12_S12_SM_
00000000000fa410 T __Z15trace_estimatorILb1EdK16PyLinearOperatorIdE13ThreadedRNG64INSt3__123mersenne_twister_engineIyLm64ELm312ELm156ELm31ELy13043109905998158313ELm29ELy6148914691236517205ELm17ELy8202884508482404352ELm37ELy18444473444759240704ELm43ELy6364136223846793005EEENS4_13random_deviceEERKZ14_trace_param_fILb1EdS1_EvPKT1_RKN8pybind117array_tIT0_Li17EEEmimSF_mmSF_SF_SF_SF_mmiRSG_SJ_SJ_RNSE_IiLi16EEESL_SL_SL_RSF_RKNSD_6kwargsEEUldE_EiPSA_PKSF_iOT3_RT2_iiiSF_iiSF_SF_SF_SF_iPSF_S10_PS10_PiS12_S12_S12_SM_
00000000000f35d0 T int trace_estimator<true, double, PyLinearOperator<double> const, ThreadedRNG64<std::__1::linear_congruential_engine<unsigned long long, 6364136223846793005ull, 1442695040888963407ull, 0ull>, std::__1::random_device>, std::__1::identity const&>(PyLinearOperator<double> const*, double const*, int, std::__1::identity const&, ThreadedRNG64<std::__1::linear_congruential_engine<unsigned long long, 6364136223846793005ull, 1442695040888963407ull, 0ull>, std::__1::random_device>&, int, int, int, double, int, int, double, double, double, double, int, double*, double*, double**, int*, int*, int*, int*, double&)
00000000000febc0 T __Z15trace_estimatorILb1EdK16PyLinearOperatorIdE13ThreadedRNG64INSt3__126linear_congruential_engineIyLy6364136223846793005ELy1442695040888963407ELy0EEENS4_13random_deviceEERKZ14_trace_param_fILb1EdS1_EvPKT1_RKN8pybind117array_tIT0_Li17EEEmimSF_mmSF_SF_SF_SF_mmiRSG_SJ_SJ_RNSE_IiLi16EEESL_SL_SL_RSF_RKNSD_6kwargsEEUldE0_EiPSA_PKSF_iOT3_RT2_iiiSF_iiSF_SF_SF_SF_iPSF_S10_PS10_PiS12_S12_S12_SM_
00000000001048e0 T __Z15trace_estimatorILb1EdK16PyLinearOperatorIdE13ThreadedRNG64INSt3__126linear_congruential_engineIyLy6364136223846793005ELy1442695040888963407ELy0EEENS4_13random_deviceEERKZ14_trace_param_fILb1EdS1_EvPKT1_RKN8pybind117array_tIT0_Li17EEEmimSF_mmSF_SF_SF_SF_mmiRSG_SJ_SJ_RNSE_IiLi16EEESL_SL_SL_RSF_RKNSD_6kwargsEEUldE1_EiPSA_PKSF_iOT3_RT2_iiiSF_iiSF_SF_SF_SF_iPSF_S10_PS10_PiS12_S12_S12_SM_
00000000000f9090 T __Z15trace_estimatorILb1EdK16PyLinearOperatorIdE13ThreadedRNG64INSt3__126linear_congruential_engineIyLy6364136223846793005ELy1442695040888963407ELy0EEENS4_13random_deviceEERKZ14_trace_param_fILb1EdS1_EvPKT1_RKN8pybind117array_tIT0_Li17EEEmimSF_mmSF_SF_SF_SF_mmiRSG_SJ_SJ_RNSE_IiLi16EEESL_SL_SL_RSF_RKNSD_6kwargsEEUldE_EiPSA_PKSF_iOT3_RT2_iiiSF_iiSF_SF_SF_SF_iPSF_S10_PS10_PiS12_S12_S12_SM_
00000000000bd070 T int trace_estimator<true, double, DenseEigenLinearOperator<double> const, ThreadedRNG64<SplitMix64, std::__1::random_device>, std::__1::identity const&>(DenseEigenLinearOperator<double> const*, double const*, int, std::__1::identity const&, ThreadedRNG64<SplitMix64, std::__1::random_device>&, int, int, int, double, int, int, double, double, double, double, int, double*, double*, double**, int*, int*, int*, int*, double&)
00000000000c9b40 T __Z15trace_estimatorILb1EdK24DenseEigenLinearOperatorIdE13ThreadedRNG64I10SplitMix64NSt3__113random_deviceEERKZ14_trace_param_fILb1EdS1_EvPKT1_RKN8pybind117array_tIT0_Li17EEEmimSE_mmSE_SE_SE_SE_mmiRSF_SI_SI_RNSD_IiLi16EEESK_SK_SK_RSE_RKNSC_6kwargsEEUldE0_EiPS9_PKSE_iOT3_RT2_iiiSE_iiSE_SE_SE_SE_iPSE_SZ_PSZ_PiS11_S11_S11_SL_
00000000000cf900 T __Z15trace_estimatorILb1EdK24DenseEigenLinearOperatorIdE13ThreadedRNG64I10SplitMix64NSt3__113random_deviceEERKZ14_trace_param_fILb1EdS1_EvPKT1_RKN8pybind117array_tIT0_Li17EEEmimSE_mmSE_SE_SE_SE_mmiRSF_SI_SI_RNSD_IiLi16EEESK_SK_SK_RSE_RKNSC_6kwargsEEUldE1_EiPS9_PKSE_iOT3_RT2_iiiSE_iiSE_SE_SE_SE_iPSE_SZ_PSZ_PiS11_S11_S11_SL_
00000000000c4230 T __Z15trace_estimatorILb1EdK24DenseEigenLinearOperatorIdE13ThreadedRNG64I10SplitMix64NSt3__113random_deviceEERKZ14_trace_param_fILb1EdS1_EvPKT1_RKN8pybind117array_tIT0_Li17EEEmimSE_mmSE_SE_SE_SE_mmiRSF_SI_SI_RNSD_IiLi16EEESK_SK_SK_RSE_RKNSC_6kwargsEEUldE_EiPS9_PKSE_iOT3_RT2_iiiSE_iiSE_SE_SE_SE_iPSE_SZ_PSZ_PiS11_S11_S11_SL_
00000000000bf120 T int trace_estimator<true, double, DenseEigenLinearOperator<double> const, ThreadedRNG64<Xoshiro256StarStar, std::__1::random_device>, std::__1::identity const&>(DenseEigenLinearOperator<double> const*, double const*, int, std::__1::identity const&, ThreadedRNG64<Xoshiro256StarStar, std::__1::random_device>&, int, int, int, double, int, int, double, double, double, double, int, double*, double*, double**, int*, int*, int*, int*, double&)
00000000000ca5f0 T __Z15trace_estimatorILb1EdK24DenseEigenLinearOperatorIdE13ThreadedRNG64I18Xoshiro256StarStarNSt3__113random_deviceEERKZ14_trace_param_fILb1EdS1_EvPKT1_RKN8pybind117array_tIT0_Li17EEEmimSE_mmSE_SE_SE_SE_mmiRSF_SI_SI_RNSD_IiLi16EEESK_SK_SK_RSE_RKNSC_6kwargsEEUldE0_EiPS9_PKSE_iOT3_RT2_iiiSE_iiSE_SE_SE_SE_iPSE_SZ_PSZ_PiS11_S11_S11_SL_
00000000000d0310 T __Z15trace_estimatorILb1EdK24DenseEigenLinearOperatorIdE13ThreadedRNG64I18Xoshiro256StarStarNSt3__113random_deviceEERKZ14_trace_param_fILb1EdS1_EvPKT1_RKN8pybind117array_tIT0_Li17EEEmimSE_mmSE_SE_SE_SE_mmiRSF_SI_SI_RNSD_IiLi16EEESK_SK_SK_RSE_RKNSC_6kwargsEEUldE1_EiPS9_PKSE_iOT3_RT2_iiiSE_iiSE_SE_SE_SE_iPSE_SZ_PSZ_PiS11_S11_S11_SL_
00000000000c4bf0 T __Z15trace_estimatorILb1EdK24DenseEigenLinearOperatorIdE13ThreadedRNG64I18Xoshiro256StarStarNSt3__113random_deviceEERKZ14_trace_param_fILb1EdS1_EvPKT1_RKN8pybind117array_tIT0_Li17EEEmimSE_mmSE_SE_SE_SE_mmiRSF_SI_SI_RNSD_IiLi16EEESK_SK_SK_RSE_RKNSC_6kwargsEEUldE_EiPS9_PKSE_iOT3_RT2_iiiSE_iiSE_SE_SE_SE_iPSE_SZ_PSZ_PiS11_S11_S11_SL_
00000000000c0580 T int trace_estimator<true, double, DenseEigenLinearOperator<double> const, ThreadedRNG64<pcg_detail::engine<unsigned long long, unsigned __int128, pcg_detail::xsl_rr_mixin<unsigned long long, unsigned __int128>, false, pcg_detail::specific_stream<unsigned __int128>, pcg_detail::default_multiplier<unsigned __int128> >, std::__1::random_device>, std::__1::identity const&>(DenseEigenLinearOperator<double> const*, double const*, int, std::__1::identity const&, ThreadedRNG64<pcg_detail::engine<unsigned long long, unsigned __int128, pcg_detail::xsl_rr_mixin<unsigned long long, unsigned __int128>, false, pcg_detail::specific_stream<unsigned __int128>, pcg_detail::default_multiplier<unsigned __int128> >, std::__1::random_device>&, int, int, int, double, int, int, double, double, double, double, int, double*, double*, double**, int*, int*, int*, int*, double&)
00000000000cbb50 T __Z15trace_estimatorILb1EdK24DenseEigenLinearOperatorIdE13ThreadedRNG64IN10pcg_detail6engineIyoNS4_12xsl_rr_mixinIyoEELb0ENS4_15specific_streamIoEENS4_18default_multiplierIoEEEENSt3__113random_deviceEERKZ14_trace_param_fILb1EdS1_EvPKT1_RKN8pybind117array_tIT0_Li17EEEmimSM_mmSM_SM_SM_SM_mmiRSN_SQ_SQ_RNSL_IiLi16EEESS_SS_SS_RSM_RKNSK_6kwargsEEUldE0_EiPSH_PKSM_iOT3_RT2_iiiSM_iiSM_SM_SM_SM_iPSM_S17_PS17_PiS19_S19_S19_ST_
00000000000d1730 T __Z15trace_estimatorILb1EdK24DenseEigenLinearOperatorIdE13ThreadedRNG64IN10pcg_detail6engineIyoNS4_12xsl_rr_mixinIyoEELb0ENS4_15specific_streamIoEENS4_18default_multiplierIoEEEENSt3__113random_deviceEERKZ14_trace_param_fILb1EdS1_EvPKT1_RKN8pybind117array_tIT0_Li17EEEmimSM_mmSM_SM_SM_SM_mmiRSN_SQ_SQ_RNSL_IiLi16EEESS_SS_SS_RSM_RKNSK_6kwargsEEUldE1_EiPSH_PKSM_iOT3_RT2_iiiSM_iiSM_SM_SM_SM_iPSM_S17_PS17_PiS19_S19_S19_ST_
00000000000c5f70 T __Z15trace_estimatorILb1EdK24DenseEigenLinearOperatorIdE13ThreadedRNG64IN10pcg_detail6engineIyoNS4_12xsl_rr_mixinIyoEELb0ENS4_15specific_streamIoEENS4_18default_multiplierIoEEEENSt3__113random_deviceEERKZ14_trace_param_fILb1EdS1_EvPKT1_RKN8pybind117array_tIT0_Li17EEEmimSM_mmSM_SM_SM_SM_mmiRSN_SQ_SQ_RNSL_IiLi16EEESS_SS_SS_RSM_RKNSK_6kwargsEEUldE_EiPSH_PKSM_iOT3_RT2_iiiSM_iiSM_SM_SM_SM_iPSM_S17_PS17_PiS19_S19_S19_ST_
00000000000c0fb0 T int trace_estimator<true, double, DenseEigenLinearOperator<double> const, ThreadedRNG64<std::__1::mersenne_twister_engine<unsigned long long, 64ul, 312ul, 156ul, 31ul, 13043109905998158313ull, 29ul, 6148914691236517205ull, 17ul, 8202884508482404352ull, 37ul, 18444473444759240704ull, 43ul, 6364136223846793005ull>, std::__1::random_device>, std::__1::identity const&>(DenseEigenLinearOperator<double> const*, double const*, int, std::__1::identity const&, ThreadedRNG64<std::__1::mersenne_twister_engine<unsigned long long, 64ul, 312ul, 156ul, 31ul, 13043109905998158313ull, 29ul, 6148914691236517205ull, 17ul, 8202884508482404352ull, 37ul, 18444473444759240704ull, 43ul, 6364136223846793005ull>, std::__1::random_device>&, int, int, int, double, int, int, double, double, double, double, int, double*, double*, double**, int*, int*, int*, int*, double&)
00000000000cc600 T __Z15trace_estimatorILb1EdK24DenseEigenLinearOperatorIdE13ThreadedRNG64INSt3__123mersenne_twister_engineIyLm64ELm312ELm156ELm31ELy13043109905998158313ELm29ELy6148914691236517205ELm17ELy8202884508482404352ELm37ELy18444473444759240704ELm43ELy6364136223846793005EEENS4_13random_deviceEERKZ14_trace_param_fILb1EdS1_EvPKT1_RKN8pybind117array_tIT0_Li17EEEmimSF_mmSF_SF_SF_SF_mmiRSG_SJ_SJ_RNSE_IiLi16EEESL_SL_SL_RSF_RKNSD_6kwargsEEUldE0_EiPSA_PKSF_iOT3_RT2_iiiSF_iiSF_SF_SF_SF_iPSF_S10_PS10_PiS12_S12_S12_SM_
00000000000d2140 T __Z15trace_estimatorILb1EdK24DenseEigenLinearOperatorIdE13ThreadedRNG64INSt3__123mersenne_twister_engineIyLm64ELm312ELm156ELm31ELy13043109905998158313ELm29ELy6148914691236517205ELm17ELy8202884508482404352ELm37ELy18444473444759240704ELm43ELy6364136223846793005EEENS4_13random_deviceEERKZ14_trace_param_fILb1EdS1_EvPKT1_RKN8pybind117array_tIT0_Li17EEEmimSF_mmSF_SF_SF_SF_mmiRSG_SJ_SJ_RNSE_IiLi16EEESL_SL_SL_RSF_RKNSD_6kwargsEEUldE1_EiPSA_PKSF_iOT3_RT2_iiiSF_iiSF_SF_SF_SF_iPSF_S10_PS10_PiS12_S12_S12_SM_
00000000000c6930 T __Z15trace_estimatorILb1EdK24DenseEigenLinearOperatorIdE13ThreadedRNG64INSt3__123mersenne_twister_engineIyLm64ELm312ELm156ELm31ELy13043109905998158313ELm29ELy6148914691236517205ELm17ELy8202884508482404352ELm37ELy18444473444759240704ELm43ELy6364136223846793005EEENS4_13random_deviceEERKZ14_trace_param_fILb1EdS1_EvPKT1_RKN8pybind117array_tIT0_Li17EEEmimSF_mmSF_SF_SF_SF_mmiRSG_SJ_SJ_RNSE_IiLi16EEESL_SL_SL_RSF_RKNSD_6kwargsEEUldE_EiPSA_PKSF_iOT3_RT2_iiiSF_iiSF_SF_SF_SF_iPSF_S10_PS10_PiS12_S12_S12_SM_
00000000000bfb50 T int trace_estimator<true, double, DenseEigenLinearOperator<double> const, ThreadedRNG64<std::__1::linear_congruential_engine<unsigned long long, 6364136223846793005ull, 1442695040888963407ull, 0ull>, std::__1::random_device>, std::__1::identity const&>(DenseEigenLinearOperator<double> const*, double const*, int, std::__1::identity const&, ThreadedRNG64<std::__1::linear_congruential_engine<unsigned long long, 6364136223846793005ull, 1442695040888963407ull, 0ull>, std::__1::random_device>&, int, int, int, double, int, int, double, double, double, double, int, double*, double*, double**, int*, int*, int*, int*, double&)
00000000000cb0a0 T __Z15trace_estimatorILb1EdK24DenseEigenLinearOperatorIdE13ThreadedRNG64INSt3__126linear_congruential_engineIyLy6364136223846793005ELy1442695040888963407ELy0EEENS4_13random_deviceEERKZ14_trace_param_fILb1EdS1_EvPKT1_RKN8pybind117array_tIT0_Li17EEEmimSF_mmSF_SF_SF_SF_mmiRSG_SJ_SJ_RNSE_IiLi16EEESL_SL_SL_RSF_RKNSD_6kwargsEEUldE0_EiPSA_PKSF_iOT3_RT2_iiiSF_iiSF_SF_SF_SF_iPSF_S10_PS10_PiS12_S12_S12_SM_
00000000000d0d20 T __Z15trace_estimatorILb1EdK24DenseEigenLinearOperatorIdE13ThreadedRNG64INSt3__126linear_congruential_engineIyLy6364136223846793005ELy1442695040888963407ELy0EEENS4_13random_deviceEERKZ14_trace_param_fILb1EdS1_EvPKT1_RKN8pybind117array_tIT0_Li17EEEmimSF_mmSF_SF_SF_SF_mmiRSG_SJ_SJ_RNSE_IiLi16EEESL_SL_SL_RSF_RKNSD_6kwargsEEUldE1_EiPSA_PKSF_iOT3_RT2_iiiSF_iiSF_SF_SF_SF_iPSF_S10_PS10_PiS12_S12_S12_SM_
00000000000c55b0 T __Z15trace_estimatorILb1EdK24DenseEigenLinearOperatorIdE13ThreadedRNG64INSt3__126linear_congruential_engineIyLy6364136223846793005ELy1442695040888963407ELy0EEENS4_13random_deviceEERKZ14_trace_param_fILb1EdS1_EvPKT1_RKN8pybind117array_tIT0_Li17EEEmimSF_mmSF_SF_SF_SF_mmiRSG_SJ_SJ_RNSE_IiLi16EEESL_SL_SL_RSF_RKNSD_6kwargsEEUldE_EiPSA_PKSF_iOT3_RT2_iiiSF_iiSF_SF_SF_SF_iPSF_S10_PS10_PiS12_S12_S12_SM_
00000000000889a0 T int trace_estimator<true, double, SparseEigenLinearOperator<double> const, ThreadedRNG64<SplitMix64, std::__1::random_device>, std::__1::identity const&>(SparseEigenLinearOperator<double> const*, double const*, int, std::__1::identity const&, ThreadedRNG64<SplitMix64, std::__1::random_device>&, int, int, int, double, int, int, double, double, double, double, int, double*, double*, double**, int*, int*, int*, int*, double&)
00000000000947c0 T __Z15trace_estimatorILb1EdK25SparseEigenLinearOperatorIdE13ThreadedRNG64I10SplitMix64NSt3__113random_deviceEERKZ14_trace_param_fILb1EdS1_EvPKT1_RKN8pybind117array_tIT0_Li17EEEmimSE_mmSE_SE_SE_SE_mmiRSF_SI_SI_RNSD_IiLi16EEESK_SK_SK_RSE_RKNSC_6kwargsEEUldE0_EiPS9_PKSE_iOT3_RT2_iiiSE_iiSE_SE_SE_SE_iPSE_SZ_PSZ_PiS11_S11_S11_SL_
000000000009a580 T __Z15trace_estimatorILb1EdK25SparseEigenLinearOperatorIdE13ThreadedRNG64I10SplitMix64NSt3__113random_deviceEERKZ14_trace_param_fILb1EdS1_EvPKT1_RKN8pybind117array_tIT0_Li17EEEmimSE_mmSE_SE_SE_SE_mmiRSF_SI_SI_RNSD_IiLi16EEESK_SK_SK_RSE_RKNSC_6kwargsEEUldE1_EiPS9_PKSE_iOT3_RT2_iiiSE_iiSE_SE_SE_SE_iPSE_SZ_PSZ_PiS11_S11_S11_SL_
000000000008eeb0 T __Z15trace_estimatorILb1EdK25SparseEigenLinearOperatorIdE13ThreadedRNG64I10SplitMix64NSt3__113random_deviceEERKZ14_trace_param_fILb1EdS1_EvPKT1_RKN8pybind117array_tIT0_Li17EEEmimSE_mmSE_SE_SE_SE_mmiRSF_SI_SI_RNSD_IiLi16EEESK_SK_SK_RSE_RKNSC_6kwargsEEUldE_EiPS9_PKSE_iOT3_RT2_iiiSE_iiSE_SE_SE_SE_iPSE_SZ_PSZ_PiS11_S11_S11_SL_
0000000000089da0 T int trace_estimator<true, double, SparseEigenLinearOperator<double> const, ThreadedRNG64<Xoshiro256StarStar, std::__1::random_device>, std::__1::identity const&>(SparseEigenLinearOperator<double> const*, double const*, int, std::__1::identity const&, ThreadedRNG64<Xoshiro256StarStar, std::__1::random_device>&, int, int, int, double, int, int, double, double, double, double, int, double*, double*, double**, int*, int*, int*, int*, double&)
0000000000095270 T __Z15trace_estimatorILb1EdK25SparseEigenLinearOperatorIdE13ThreadedRNG64I18Xoshiro256StarStarNSt3__113random_deviceEERKZ14_trace_param_fILb1EdS1_EvPKT1_RKN8pybind117array_tIT0_Li17EEEmimSE_mmSE_SE_SE_SE_mmiRSF_SI_SI_RNSD_IiLi16EEESK_SK_SK_RSE_RKNSC_6kwargsEEUldE0_EiPS9_PKSE_iOT3_RT2_iiiSE_iiSE_SE_SE_SE_iPSE_SZ_PSZ_PiS11_S11_S11_SL_
000000000009af90 T __Z15trace_estimatorILb1EdK25SparseEigenLinearOperatorIdE13ThreadedRNG64I18Xoshiro256StarStarNSt3__113random_deviceEERKZ14_trace_param_fILb1EdS1_EvPKT1_RKN8pybind117array_tIT0_Li17EEEmimSE_mmSE_SE_SE_SE_mmiRSF_SI_SI_RNSD_IiLi16EEESK_SK_SK_RSE_RKNSC_6kwargsEEUldE1_EiPS9_PKSE_iOT3_RT2_iiiSE_iiSE_SE_SE_SE_iPSE_SZ_PSZ_PiS11_S11_S11_SL_
000000000008f870 T __Z15trace_estimatorILb1EdK25SparseEigenLinearOperatorIdE13ThreadedRNG64I18Xoshiro256StarStarNSt3__113random_deviceEERKZ14_trace_param_fILb1EdS1_EvPKT1_RKN8pybind117array_tIT0_Li17EEEmimSE_mmSE_SE_SE_SE_mmiRSF_SI_SI_RNSD_IiLi16EEESK_SK_SK_RSE_RKNSC_6kwargsEEUldE_EiPS9_PKSE_iOT3_RT2_iiiSE_iiSE_SE_SE_SE_iPSE_SZ_PSZ_PiS11_S11_S11_SL_
000000000008b200 T int trace_estimator<true, double, SparseEigenLinearOperator<double> const, ThreadedRNG64<pcg_detail::engine<unsigned long long, unsigned __int128, pcg_detail::xsl_rr_mixin<unsigned long long, unsigned __int128>, false, pcg_detail::specific_stream<unsigned __int128>, pcg_detail::default_multiplier<unsigned __int128> >, std::__1::random_device>, std::__1::identity const&>(SparseEigenLinearOperator<double> const*, double const*, int, std::__1::identity const&, ThreadedRNG64<pcg_detail::engine<unsigned long long, unsigned __int128, pcg_detail::xsl_rr_mixin<unsigned long long, unsigned __int128>, false, pcg_detail::specific_stream<unsigned __int128>, pcg_detail::default_multiplier<unsigned __int128> >, std::__1::random_device>&, int, int, int, double, int, int, double, double, double, double, int, double*, double*, double**, int*, int*, int*, int*, double&)
00000000000967d0 T __Z15trace_estimatorILb1EdK25SparseEigenLinearOperatorIdE13ThreadedRNG64IN10pcg_detail6engineIyoNS4_12xsl_rr_mixinIyoEELb0ENS4_15specific_streamIoEENS4_18default_multiplierIoEEEENSt3__113random_deviceEERKZ14_trace_param_fILb1EdS1_EvPKT1_RKN8pybind117array_tIT0_Li17EEEmimSM_mmSM_SM_SM_SM_mmiRSN_SQ_SQ_RNSL_IiLi16EEESS_SS_SS_RSM_RKNSK_6kwargsEEUldE0_EiPSH_PKSM_iOT3_RT2_iiiSM_iiSM_SM_SM_SM_iPSM_S17_PS17_PiS19_S19_S19_ST_
000000000009c3b0 T __Z15trace_estimatorILb1EdK25SparseEigenLinearOperatorIdE13ThreadedRNG64IN10pcg_detail6engineIyoNS4_12xsl_rr_mixinIyoEELb0ENS4_15specific_streamIoEENS4_18default_multiplierIoEEEENSt3__113random_deviceEERKZ14_trace_param_fILb1EdS1_EvPKT1_RKN8pybind117array_tIT0_Li17EEEmimSM_mmSM_SM_SM_SM_mmiRSN_SQ_SQ_RNSL_IiLi16EEESS_SS_SS_RSM_RKNSK_6kwargsEEUldE1_EiPSH_PKSM_iOT3_RT2_iiiSM_iiSM_SM_SM_SM_iPSM_S17_PS17_PiS19_S19_S19_ST_
0000000000090bf0 T __Z15trace_estimatorILb1EdK25SparseEigenLinearOperatorIdE13ThreadedRNG64IN10pcg_detail6engineIyoNS4_12xsl_rr_mixinIyoEELb0ENS4_15specific_streamIoEENS4_18default_multiplierIoEEEENSt3__113random_deviceEERKZ14_trace_param_fILb1EdS1_EvPKT1_RKN8pybind117array_tIT0_Li17EEEmimSM_mmSM_SM_SM_SM_mmiRSN_SQ_SQ_RNSL_IiLi16EEESS_SS_SS_RSM_RKNSK_6kwargsEEUldE_EiPSH_PKSM_iOT3_RT2_iiiSM_iiSM_SM_SM_SM_iPSM_S17_PS17_PiS19_S19_S19_ST_
000000000008bc30 T int trace_estimator<true, double, SparseEigenLinearOperator<double> const, ThreadedRNG64<std::__1::mersenne_twister_engine<unsigned long long, 64ul, 312ul, 156ul, 31ul, 13043109905998158313ull, 29ul, 6148914691236517205ull, 17ul, 8202884508482404352ull, 37ul, 18444473444759240704ull, 43ul, 6364136223846793005ull>, std::__1::random_device>, std::__1::identity const&>(SparseEigenLinearOperator<double> const*, double const*, int, std::__1::identity const&, ThreadedRNG64<std::__1::mersenne_twister_engine<unsigned long long, 64ul, 312ul, 156ul, 31ul, 13043109905998158313ull, 29ul, 6148914691236517205ull, 17ul, 8202884508482404352ull, 37ul, 18444473444759240704ull, 43ul, 6364136223846793005ull>, std::__1::random_device>&, int, int, int, double, int, int, double, double, double, double, int, double*, double*, double**, int*, int*, int*, int*, double&)
0000000000097280 T __Z15trace_estimatorILb1EdK25SparseEigenLinearOperatorIdE13ThreadedRNG64INSt3__123mersenne_twister_engineIyLm64ELm312ELm156ELm31ELy13043109905998158313ELm29ELy6148914691236517205ELm17ELy8202884508482404352ELm37ELy18444473444759240704ELm43ELy6364136223846793005EEENS4_13random_deviceEERKZ14_trace_param_fILb1EdS1_EvPKT1_RKN8pybind117array_tIT0_Li17EEEmimSF_mmSF_SF_SF_SF_mmiRSG_SJ_SJ_RNSE_IiLi16EEESL_SL_SL_RSF_RKNSD_6kwargsEEUldE0_EiPSA_PKSF_iOT3_RT2_iiiSF_iiSF_SF_SF_SF_iPSF_S10_PS10_PiS12_S12_S12_SM_
000000000009cdc0 T __Z15trace_estimatorILb1EdK25SparseEigenLinearOperatorIdE13ThreadedRNG64INSt3__123mersenne_twister_engineIyLm64ELm312ELm156ELm31ELy13043109905998158313ELm29ELy6148914691236517205ELm17ELy8202884508482404352ELm37ELy18444473444759240704ELm43ELy6364136223846793005EEENS4_13random_deviceEERKZ14_trace_param_fILb1EdS1_EvPKT1_RKN8pybind117array_tIT0_Li17EEEmimSF_mmSF_SF_SF_SF_mmiRSG_SJ_SJ_RNSE_IiLi16EEESL_SL_SL_RSF_RKNSD_6kwargsEEUldE1_EiPSA_PKSF_iOT3_RT2_iiiSF_iiSF_SF_SF_SF_iPSF_S10_PS10_PiS12_S12_S12_SM_
00000000000915b0 T __Z15trace_estimatorILb1EdK25SparseEigenLinearOperatorIdE13ThreadedRNG64INSt3__123mersenne_twister_engineIyLm64ELm312ELm156ELm31ELy13043109905998158313ELm29ELy6148914691236517205ELm17ELy8202884508482404352ELm37ELy18444473444759240704ELm43ELy6364136223846793005EEENS4_13random_deviceEERKZ14_trace_param_fILb1EdS1_EvPKT1_RKN8pybind117array_tIT0_Li17EEEmimSF_mmSF_SF_SF_SF_mmiRSG_SJ_SJ_RNSE_IiLi16EEESL_SL_SL_RSF_RKNSD_6kwargsEEUldE_EiPSA_PKSF_iOT3_RT2_iiiSF_iiSF_SF_SF_SF_iPSF_S10_PS10_PiS12_S12_S12_SM_
000000000008a7d0 T int trace_estimator<true, double, SparseEigenLinearOperator<double> const, ThreadedRNG64<std::__1::linear_congruential_engine<unsigned long long, 6364136223846793005ull, 1442695040888963407ull, 0ull>, std::__1::random_device>, std::__1::identity const&>(SparseEigenLinearOperator<double> const*, double const*, int, std::__1::identity const&, ThreadedRNG64<std::__1::linear_congruential_engine<unsigned long long, 6364136223846793005ull, 1442695040888963407ull, 0ull>, std::__1::random_device>&, int, int, int, double, int, int, double, double, double, double, int, double*, double*, double**, int*, int*, int*, int*, double&)
0000000000095d20 T __Z15trace_estimatorILb1EdK25SparseEigenLinearOperatorIdE13ThreadedRNG64INSt3__126linear_congruential_engineIyLy6364136223846793005ELy1442695040888963407ELy0EEENS4_13random_deviceEERKZ14_trace_param_fILb1EdS1_EvPKT1_RKN8pybind117array_tIT0_Li17EEEmimSF_mmSF_SF_SF_SF_mmiRSG_SJ_SJ_RNSE_IiLi16EEESL_SL_SL_RSF_RKNSD_6kwargsEEUldE0_EiPSA_PKSF_iOT3_RT2_iiiSF_iiSF_SF_SF_SF_iPSF_S10_PS10_PiS12_S12_S12_SM_
000000000009b9a0 T __Z15trace_estimatorILb1EdK25SparseEigenLinearOperatorIdE13ThreadedRNG64INSt3__126linear_congruential_engineIyLy6364136223846793005ELy1442695040888963407ELy0EEENS4_13random_deviceEERKZ14_trace_param_fILb1EdS1_EvPKT1_RKN8pybind117array_tIT0_Li17EEEmimSF_mmSF_SF_SF_SF_mmiRSG_SJ_SJ_RNSE_IiLi16EEESL_SL_SL_RSF_RKNSD_6kwargsEEUldE1_EiPSA_PKSF_iOT3_RT2_iiiSF_iiSF_SF_SF_SF_iPSF_S10_PS10_PiS12_S12_S12_SM_
0000000000090230 T __Z15trace_estimatorILb1EdK25SparseEigenLinearOperatorIdE13ThreadedRNG64INSt3__126linear_congruential_engineIyLy6364136223846793005ELy1442695040888963407ELy0EEENS4_13random_deviceEERKZ14_trace_param_fILb1EdS1_EvPKT1_RKN8pybind117array_tIT0_Li17EEEmimSF_mmSF_SF_SF_SF_mmiRSG_SJ_SJ_RNSE_IiLi16EEESL_SL_SL_RSF_RKNSD_6kwargsEEUldE_EiPSA_PKSF_iOT3_RT2_iiiSF_iiSF_SF_SF_SF_iPSF_S10_PS10_PiS12_S12_S12_SM_
00000000000d7200 T int trace_estimator<true, float, PyLinearOperator<float> const, ThreadedRNG64<SplitMix64, std::__1::random_device>, std::__1::identity const&>(PyLinearOperator<float> const*, float const*, int, std::__1::identity const&, ThreadedRNG64<SplitMix64, std::__1::random_device>&, int, int, int, float, int, int, float, float, float, float, int, float*, float*, float**, int*, int*, int*, int*, float&)
00000000000e3ae0 T __Z15trace_estimatorILb1EfK16PyLinearOperatorIfE13ThreadedRNG64I10SplitMix64NSt3__113random_deviceEERKZ14_trace_param_fILb1EfS1_EvPKT1_RKN8pybind117array_tIT0_Li17EEEmimSE_mmSE_SE_SE_SE_mmiRSF_SI_SI_RNSD_IiLi16EEESK_SK_SK_RSE_RKNSC_6kwargsEEUlfE0_EiPS9_PKSE_iOT3_RT2_iiiSE_iiSE_SE_SE_SE_iPSE_SZ_PSZ_PiS11_S11_S11_SL_
00000000000e9800 T __Z15trace_estimatorILb1EfK16PyLinearOperatorIfE13ThreadedRNG64I10SplitMix64NSt3__113random_deviceEERKZ14_trace_param_fILb1EfS1_EvPKT1_RKN8pybind117array_tIT0_Li17EEEmimSE_mmSE_SE_SE_SE_mmiRSF_SI_SI_RNSD_IiLi16EEESK_SK_SK_RSE_RKNSC_6kwargsEEUlfE1_EiPS9_PKSE_iOT3_RT2_iiiSE_iiSE_SE_SE_SE_iPSE_SZ_PSZ_PiS11_S11_S11_SL_
00000000000de1d0 T __Z15trace_estimatorILb1EfK16PyLinearOperatorIfE13ThreadedRNG64I10SplitMix64NSt3__113random_deviceEERKZ14_trace_param_fILb1EfS1_EvPKT1_RKN8pybind117array_tIT0_Li17EEEmimSE_mmSE_SE_SE_SE_mmiRSF_SI_SI_RNSD_IiLi16EEESK_SK_SK_RSE_RKNSC_6kwargsEEUlfE_EiPS9_PKSE_iOT3_RT2_iiiSE_iiSE_SE_SE_SE_iPSE_SZ_PSZ_PiS11_S11_S11_SL_
00000000000d8fc0 T int trace_estimator<true, float, PyLinearOperator<float> const, ThreadedRNG64<Xoshiro256StarStar, std::__1::random_device>, std::__1::identity const&>(PyLinearOperator<float> const*, float const*, int, std::__1::identity const&, ThreadedRNG64<Xoshiro256StarStar, std::__1::random_device>&, int, int, int, float, int, int, float, float, float, float, int, float*, float*, float**, int*, int*, int*, int*, float&)
00000000000e4570 T __Z15trace_estimatorILb1EfK16PyLinearOperatorIfE13ThreadedRNG64I18Xoshiro256StarStarNSt3__113random_deviceEERKZ14_trace_param_fILb1EfS1_EvPKT1_RKN8pybind117array_tIT0_Li17EEEmimSE_mmSE_SE_SE_SE_mmiRSF_SI_SI_RNSD_IiLi16EEESK_SK_SK_RSE_RKNSC_6kwargsEEUlfE0_EiPS9_PKSE_iOT3_RT2_iiiSE_iiSE_SE_SE_SE_iPSE_SZ_PSZ_PiS11_S11_S11_SL_
00000000000ea240 T __Z15trace_estimatorILb1EfK16PyLinearOperatorIfE13ThreadedRNG64I18Xoshiro256StarStarNSt3__113random_deviceEERKZ14_trace_param_fILb1EfS1_EvPKT1_RKN8pybind117array_tIT0_Li17EEEmimSE_mmSE_SE_SE_SE_mmiRSF_SI_SI_RNSD_IiLi16EEESK_SK_SK_RSE_RKNSC_6kwargsEEUlfE1_EiPS9_PKSE_iOT3_RT2_iiiSE_iiSE_SE_SE_SE_iPSE_SZ_PSZ_PiS11_S11_S11_SL_
00000000000deb90 T __Z15trace_estimatorILb1EfK16PyLinearOperatorIfE13ThreadedRNG64I18Xoshiro256StarStarNSt3__113random_deviceEERKZ14_trace_param_fILb1EfS1_EvPKT1_RKN8pybind117array_tIT0_Li17EEEmimSE_mmSE_SE_SE_SE_mmiRSF_SI_SI_RNSD_IiLi16EEESK_SK_SK_RSE_RKNSC_6kwargsEEUlfE_EiPS9_PKSE_iOT3_RT2_iiiSE_iiSE_SE_SE_SE_iPSE_SZ_PSZ_PiS11_S11_S11_SL_
00000000000da4a0 T int trace_estimator<true, float, PyLinearOperator<float> const, ThreadedRNG64<pcg_detail::engine<unsigned long long, unsigned __int128, pcg_detail::xsl_rr_mixin<unsigned long long, unsigned __int128>, false, pcg_detail::specific_stream<unsigned __int128>, pcg_detail::default_multiplier<unsigned __int128> >, std::__1::random_device>, std::__1::identity const&>(PyLinearOperator<float> const*, float const*, int, std::__1::identity const&, ThreadedRNG64<pcg_detail::engine<unsigned long long, unsigned __int128, pcg_detail::xsl_rr_mixin<unsigned long long, unsigned __int128>, false, pcg_detail::specific_stream<unsigned __int128>, pcg_detail::default_multiplier<unsigned __int128> >, std::__1::random_device>&, int, int, int, float, int, int, float, float, float, float, int, float*, float*, float**, int*, int*, int*, int*, float&)
00000000000e5a90 T __Z15trace_estimatorILb1EfK16PyLinearOperatorIfE13ThreadedRNG64IN10pcg_detail6engineIyoNS4_12xsl_rr_mixinIyoEELb0ENS4_15specific_streamIoEENS4_18default_multiplierIoEEEENSt3__113random_deviceEERKZ14_trace_param_fILb1EfS1_EvPKT1_RKN8pybind117array_tIT0_Li17EEEmimSM_mmSM_SM_SM_SM_mmiRSN_SQ_SQ_RNSL_IiLi16EEESS_SS_SS_RSM_RKNSK_6kwargsEEUlfE0_EiPSH_PKSM_iOT3_RT2_iiiSM_iiSM_SM_SM_SM_iPSM_S17_PS17_PiS19_S19_S19_ST_
00000000000eb6c0 T __Z15trace_estimatorILb1EfK16PyLinearOperatorIfE13ThreadedRNG64IN10pcg_detail6engineIyoNS4_12xsl_rr_mixinIyoEELb0ENS4_15specific_streamIoEENS4_18default_multiplierIoEEEENSt3__113random_deviceEERKZ14_trace_param_fILb1EfS1_EvPKT1_RKN8pybind117array_tIT0_Li17EEEmimSM_mmSM_SM_SM_SM_mmiRSN_SQ_SQ_RNSL_IiLi16EEESS_SS_SS_RSM_RKNSK_6kwargsEEUlfE1_EiPSH_PKSM_iOT3_RT2_iiiSM_iiSM_SM_SM_SM_iPSM_S17_PS17_PiS19_S19_S19_ST_
00000000000dff10 T __Z15trace_estimatorILb1EfK16PyLinearOperatorIfE13ThreadedRNG64IN10pcg_detail6engineIyoNS4_12xsl_rr_mixinIyoEELb0ENS4_15specific_streamIoEENS4_18default_multiplierIoEEEENSt3__113random_deviceEERKZ14_trace_param_fILb1EfS1_EvPKT1_RKN8pybind117array_tIT0_Li17EEEmimSM_mmSM_SM_SM_SM_mmiRSN_SQ_SQ_RNSL_IiLi16EEESS_SS_SS_RSM_RKNSK_6kwargsEEUlfE_EiPSH_PKSM_iOT3_RT2_iiiSM_iiSM_SM_SM_SM_iPSM_S17_PS17_PiS19_S19_S19_ST_
00000000000daf10 T int trace_estimator<true, float, PyLinearOperator<float> const, ThreadedRNG64<std::__1::mersenne_twister_engine<unsigned long long, 64ul, 312ul, 156ul, 31ul, 13043109905998158313ull, 29ul, 6148914691236517205ull, 17ul, 8202884508482404352ull, 37ul, 18444473444759240704ull, 43ul, 6364136223846793005ull>, std::__1::random_device>, std::__1::identity const&>(PyLinearOperator<float> const*, float const*, int, std::__1::identity const&, ThreadedRNG64<std::__1::mersenne_twister_engine<unsigned long long, 64ul, 312ul, 156ul, 31ul, 13043109905998158313ull, 29ul, 6148914691236517205ull, 17ul, 8202884508482404352ull, 37ul, 18444473444759240704ull, 43ul, 6364136223846793005ull>, std::__1::random_device>&, int, int, int, float, int, int, float, float, float, float, int, float*, float*, float**, int*, int*, int*, int*, float&)
00000000000e6520 T __Z15trace_estimatorILb1EfK16PyLinearOperatorIfE13ThreadedRNG64INSt3__123mersenne_twister_engineIyLm64ELm312ELm156ELm31ELy13043109905998158313ELm29ELy6148914691236517205ELm17ELy8202884508482404352ELm37ELy18444473444759240704ELm43ELy6364136223846793005EEENS4_13random_deviceEERKZ14_trace_param_fILb1EfS1_EvPKT1_RKN8pybind117array_tIT0_Li17EEEmimSF_mmSF_SF_SF_SF_mmiRSG_SJ_SJ_RNSE_IiLi16EEESL_SL_SL_RSF_RKNSD_6kwargsEEUlfE0_EiPSA_PKSF_iOT3_RT2_iiiSF_iiSF_SF_SF_SF_iPSF_S10_PS10_PiS12_S12_S12_SM_
00000000000ec100 T __Z15trace_estimatorILb1EfK16PyLinearOperatorIfE13ThreadedRNG64INSt3__123mersenne_twister_engineIyLm64ELm312ELm156ELm31ELy13043109905998158313ELm29ELy6148914691236517205ELm17ELy8202884508482404352ELm37ELy18444473444759240704ELm43ELy6364136223846793005EEENS4_13random_deviceEERKZ14_trace_param_fILb1EfS1_EvPKT1_RKN8pybind117array_tIT0_Li17EEEmimSF_mmSF_SF_SF_SF_mmiRSG_SJ_SJ_RNSE_IiLi16EEESL_SL_SL_RSF_RKNSD_6kwargsEEUlfE1_EiPSA_PKSF_iOT3_RT2_iiiSF_iiSF_SF_SF_SF_iPSF_S10_PS10_PiS12_S12_S12_SM_
00000000000e08d0 T __Z15trace_estimatorILb1EfK16PyLinearOperatorIfE13ThreadedRNG64INSt3__123mersenne_twister_engineIyLm64ELm312ELm156ELm31ELy13043109905998158313ELm29ELy6148914691236517205ELm17ELy8202884508482404352ELm37ELy18444473444759240704ELm43ELy6364136223846793005EEENS4_13random_deviceEERKZ14_trace_param_fILb1EfS1_EvPKT1_RKN8pybind117array_tIT0_Li17EEEmimSF_mmSF_SF_SF_SF_mmiRSG_SJ_SJ_RNSE_IiLi16EEESL_SL_SL_RSF_RKNSD_6kwargsEEUlfE_EiPSA_PKSF_iOT3_RT2_iiiSF_iiSF_SF_SF_SF_iPSF_S10_PS10_PiS12_S12_S12_SM_
00000000000d9a30 T int trace_estimator<true, float, PyLinearOperator<float> const, ThreadedRNG64<std::__1::linear_congruential_engine<unsigned long long, 6364136223846793005ull, 1442695040888963407ull, 0ull>, std::__1::random_device>, std::__1::identity const&>(PyLinearOperator<float> const*, float const*, int, std::__1::identity const&, ThreadedRNG64<std::__1::linear_congruential_engine<unsigned long long, 6364136223846793005ull, 1442695040888963407ull, 0ull>, std::__1::random_device>&, int, int, int, float, int, int, float, float, float, float, int, float*, float*, float**, int*, int*, int*, int*, float&)
00000000000e5000 T __Z15trace_estimatorILb1EfK16PyLinearOperatorIfE13ThreadedRNG64INSt3__126linear_congruential_engineIyLy6364136223846793005ELy1442695040888963407ELy0EEENS4_13random_deviceEERKZ14_trace_param_fILb1EfS1_EvPKT1_RKN8pybind117array_tIT0_Li17EEEmimSF_mmSF_SF_SF_SF_mmiRSG_SJ_SJ_RNSE_IiLi16EEESL_SL_SL_RSF_RKNSD_6kwargsEEUlfE0_EiPSA_PKSF_iOT3_RT2_iiiSF_iiSF_SF_SF_SF_iPSF_S10_PS10_PiS12_S12_S12_SM_
00000000000eac80 T __Z15trace_estimatorILb1EfK16PyLinearOperatorIfE13ThreadedRNG64INSt3__126linear_congruential_engineIyLy6364136223846793005ELy1442695040888963407ELy0EEENS4_13random_deviceEERKZ14_trace_param_fILb1EfS1_EvPKT1_RKN8pybind117array_tIT0_Li17EEEmimSF_mmSF_SF_SF_SF_mmiRSG_SJ_SJ_RNSE_IiLi16EEESL_SL_SL_RSF_RKNSD_6kwargsEEUlfE1_EiPSA_PKSF_iOT3_RT2_iiiSF_iiSF_SF_SF_SF_iPSF_S10_PS10_PiS12_S12_S12_SM_
00000000000df550 T __Z15trace_estimatorILb1EfK16PyLinearOperatorIfE13ThreadedRNG64INSt3__126linear_congruential_engineIyLy6364136223846793005ELy1442695040888963407ELy0EEENS4_13random_deviceEERKZ14_trace_param_fILb1EfS1_EvPKT1_RKN8pybind117array_tIT0_Li17EEEmimSF_mmSF_SF_SF_SF_mmiRSG_SJ_SJ_RNSE_IiLi16EEESL_SL_SL_RSF_RKNSD_6kwargsEEUlfE_EiPSA_PKSF_iOT3_RT2_iiiSF_iiSF_SF_SF_SF_iPSF_S10_PS10_PiS12_S12_S12_SM_
00000000000a2830 T int trace_estimator<true, float, DenseEigenLinearOperator<float> const, ThreadedRNG64<SplitMix64, std::__1::random_device>, std::__1::identity const&>(DenseEigenLinearOperator<float> const*, float const*, int, std::__1::identity const&, ThreadedRNG64<SplitMix64, std::__1::random_device>&, int, int, int, float, int, int, float, float, float, float, int, float*, float*, float**, int*, int*, int*, int*, float&)
00000000000af2b0 T __Z15trace_estimatorILb1EfK24DenseEigenLinearOperatorIfE13ThreadedRNG64I10SplitMix64NSt3__113random_deviceEERKZ14_trace_param_fILb1EfS1_EvPKT1_RKN8pybind117array_tIT0_Li17EEEmimSE_mmSE_SE_SE_SE_mmiRSF_SI_SI_RNSD_IiLi16EEESK_SK_SK_RSE_RKNSC_6kwargsEEUlfE0_EiPS9_PKSE_iOT3_RT2_iiiSE_iiSE_SE_SE_SE_iPSE_SZ_PSZ_PiS11_S11_S11_SL_
00000000000b4f30 T __Z15trace_estimatorILb1EfK24DenseEigenLinearOperatorIfE13ThreadedRNG64I10SplitMix64NSt3__113random_deviceEERKZ14_trace_param_fILb1EfS1_EvPKT1_RKN8pybind117array_tIT0_Li17EEEmimSE_mmSE_SE_SE_SE_mmiRSF_SI_SI_RNSD_IiLi16EEESK_SK_SK_RSE_RKNSC_6kwargsEEUlfE1_EiPS9_PKSE_iOT3_RT2_iiiSE_iiSE_SE_SE_SE_iPSE_SZ_PSZ_PiS11_S11_S11_SL_
00000000000a99f0 T __Z15trace_estimatorILb1EfK24DenseEigenLinearOperatorIfE13ThreadedRNG64I10SplitMix64NSt3__113random_deviceEERKZ14_trace_param_fILb1EfS1_EvPKT1_RKN8pybind117array_tIT0_Li17EEEmimSE_mmSE_SE_SE_SE_mmiRSF_SI_SI_RNSD_IiLi16EEESK_SK_SK_RSE_RKNSC_6kwargsEEUlfE_EiPS9_PKSE_iOT3_RT2_iiiSE_iiSE_SE_SE_SE_iPSE_SZ_PSZ_PiS11_S11_S11_SL_
00000000000a4820 T int trace_estimator<true, float, DenseEigenLinearOperator<float> const, ThreadedRNG64<Xoshiro256StarStar, std::__1::random_device>, std::__1::identity const&>(DenseEigenLinearOperator<float> const*, float const*, int, std::__1::identity const&, ThreadedRNG64<Xoshiro256StarStar, std::__1::random_device>&, int, int, int, float, int, int, float, float, float, float, int, float*, float*, float**, int*, int*, int*, int*, float&)
00000000000afd20 T __Z15trace_estimatorILb1EfK24DenseEigenLinearOperatorIfE13ThreadedRNG64I18Xoshiro256StarStarNSt3__113random_deviceEERKZ14_trace_param_fILb1EfS1_EvPKT1_RKN8pybind117array_tIT0_Li17EEEmimSE_mmSE_SE_SE_SE_mmiRSF_SI_SI_RNSD_IiLi16EEESK_SK_SK_RSE_RKNSC_6kwargsEEUlfE0_EiPS9_PKSE_iOT3_RT2_iiiSE_iiSE_SE_SE_SE_iPSE_SZ_PSZ_PiS11_S11_S11_SL_
00000000000b5960 T __Z15trace_estimatorILb1EfK24DenseEigenLinearOperatorIfE13ThreadedRNG64I18Xoshiro256StarStarNSt3__113random_deviceEERKZ14_trace_param_fILb1EfS1_EvPKT1_RKN8pybind117array_tIT0_Li17EEEmimSE_mmSE_SE_SE_SE_mmiRSF_SI_SI_RNSD_IiLi16EEESK_SK_SK_RSE_RKNSC_6kwargsEEUlfE1_EiPS9_PKSE_iOT3_RT2_iiiSE_iiSE_SE_SE_SE_iPSE_SZ_PSZ_PiS11_S11_S11_SL_
00000000000aa3a0 T __Z15trace_estimatorILb1EfK24DenseEigenLinearOperatorIfE13ThreadedRNG64I18Xoshiro256StarStarNSt3__113random_deviceEERKZ14_trace_param_fILb1EfS1_EvPKT1_RKN8pybind117array_tIT0_Li17EEEmimSE_mmSE_SE_SE_SE_mmiRSF_SI_SI_RNSD_IiLi16EEESK_SK_SK_RSE_RKNSC_6kwargsEEUlfE_EiPS9_PKSE_iOT3_RT2_iiiSE_iiSE_SE_SE_SE_iPSE_SZ_PSZ_PiS11_S11_S11_SL_
00000000000a5ce0 T int trace_estimator<true, float, DenseEigenLinearOperator<float> const, ThreadedRNG64<pcg_detail::engine<unsigned long long, unsigned __int128, pcg_detail::xsl_rr_mixin<unsigned long long, unsigned __int128>, false, pcg_detail::specific_stream<unsigned __int128>, pcg_detail::default_multiplier<unsigned __int128> >, std::__1::random_device>, std::__1::identity const&>(DenseEigenLinearOperator<float> const*, float const*, int, std::__1::identity const&, ThreadedRNG64<pcg_detail::engine<unsigned long long, unsigned __int128, pcg_detail::xsl_rr_mixin<unsigned long long, unsigned __int128>, false, pcg_detail::specific_stream<unsigned __int128>, pcg_detail::default_multiplier<unsigned __int128> >, std::__1::random_device>&, int, int, int, float, int, int, float, float, float, float, int, float*, float*, float**, int*, int*, int*, int*, float&)
00000000000b1200 T __Z15trace_estimatorILb1EfK24DenseEigenLinearOperatorIfE13ThreadedRNG64IN10pcg_detail6engineIyoNS4_12xsl_rr_mixinIyoEELb0ENS4_15specific_streamIoEENS4_18default_multiplierIoEEEENSt3__113random_deviceEERKZ14_trace_param_fILb1EfS1_EvPKT1_RKN8pybind117array_tIT0_Li17EEEmimSM_mmSM_SM_SM_SM_mmiRSN_SQ_SQ_RNSL_IiLi16EEESS_SS_SS_RSM_RKNSK_6kwargsEEUlfE0_EiPSH_PKSM_iOT3_RT2_iiiSM_iiSM_SM_SM_SM_iPSM_S17_PS17_PiS19_S19_S19_ST_
00000000000b6dc0 T __Z15trace_estimatorILb1EfK24DenseEigenLinearOperatorIfE13ThreadedRNG64IN10pcg_detail6engineIyoNS4_12xsl_rr_mixinIyoEELb0ENS4_15specific_streamIoEENS4_18default_multiplierIoEEEENSt3__113random_deviceEERKZ14_trace_param_fILb1EfS1_EvPKT1_RKN8pybind117array_tIT0_Li17EEEmimSM_mmSM_SM_SM_SM_mmiRSN_SQ_SQ_RNSL_IiLi16EEESS_SS_SS_RSM_RKNSK_6kwargsEEUlfE1_EiPSH_PKSM_iOT3_RT2_iiiSM_iiSM_SM_SM_SM_iPSM_S17_PS17_PiS19_S19_S19_ST_
00000000000ab700 T __Z15trace_estimatorILb1EfK24DenseEigenLinearOperatorIfE13ThreadedRNG64IN10pcg_detail6engineIyoNS4_12xsl_rr_mixinIyoEELb0ENS4_15specific_streamIoEENS4_18default_multiplierIoEEEENSt3__113random_deviceEERKZ14_trace_param_fILb1EfS1_EvPKT1_RKN8pybind117array_tIT0_Li17EEEmimSM_mmSM_SM_SM_SM_mmiRSN_SQ_SQ_RNSL_IiLi16EEESS_SS_SS_RSM_RKNSK_6kwargsEEUlfE_EiPSH_PKSM_iOT3_RT2_iiiSM_iiSM_SM_SM_SM_iPSM_S17_PS17_PiS19_S19_S19_ST_
00000000000a6740 T int trace_estimator<true, float, DenseEigenLinearOperator<float> const, ThreadedRNG64<std::__1::mersenne_twister_engine<unsigned long long, 64ul, 312ul, 156ul, 31ul, 13043109905998158313ull, 29ul, 6148914691236517205ull, 17ul, 8202884508482404352ull, 37ul, 18444473444759240704ull, 43ul, 6364136223846793005ull>, std::__1::random_device>, std::__1::identity const&>(DenseEigenLinearOperator<float> const*, float const*, int, std::__1::identity const&, ThreadedRNG64<std::__1::mersenne_twister_engine<unsigned long long, 64ul, 312ul, 156ul, 31ul, 13043109905998158313ull, 29ul, 6148914691236517205ull, 17ul, 8202884508482404352ull, 37ul, 18444473444759240704ull, 43ul, 6364136223846793005ull>, std::__1::random_device>&, int, int, int, float, int, int, float, float, float, float, int, float*, float*, float**, int*, int*, int*, int*, float&)
00000000000b1c70 T __Z15trace_estimatorILb1EfK24DenseEigenLinearOperatorIfE13ThreadedRNG64INSt3__123mersenne_twister_engineIyLm64ELm312ELm156ELm31ELy13043109905998158313ELm29ELy6148914691236517205ELm17ELy8202884508482404352ELm37ELy18444473444759240704ELm43ELy6364136223846793005EEENS4_13random_deviceEERKZ14_trace_param_fILb1EfS1_EvPKT1_RKN8pybind117array_tIT0_Li17EEEmimSF_mmSF_SF_SF_SF_mmiRSG_SJ_SJ_RNSE_IiLi16EEESL_SL_SL_RSF_RKNSD_6kwargsEEUlfE0_EiPSA_PKSF_iOT3_RT2_iiiSF_iiSF_SF_SF_SF_iPSF_S10_PS10_PiS12_S12_S12_SM_
00000000000b77f0 T __Z15trace_estimatorILb1EfK24DenseEigenLinearOperatorIfE13ThreadedRNG64INSt3__123mersenne_twister_engineIyLm64ELm312ELm156ELm31ELy13043109905998158313ELm29ELy6148914691236517205ELm17ELy8202884508482404352ELm37ELy18444473444759240704ELm43ELy6364136223846793005EEENS4_13random_deviceEERKZ14_trace_param_fILb1EfS1_EvPKT1_RKN8pybind117array_tIT0_Li17EEEmimSF_mmSF_SF_SF_SF_mmiRSG_SJ_SJ_RNSE_IiLi16EEESL_SL_SL_RSF_RKNSD_6kwargsEEUlfE1_EiPSA_PKSF_iOT3_RT2_iiiSF_iiSF_SF_SF_SF_iPSF_S10_PS10_PiS12_S12_S12_SM_
00000000000ac0b0 T __Z15trace_estimatorILb1EfK24DenseEigenLinearOperatorIfE13ThreadedRNG64INSt3__123mersenne_twister_engineIyLm64ELm312ELm156ELm31ELy13043109905998158313ELm29ELy6148914691236517205ELm17ELy8202884508482404352ELm37ELy18444473444759240704ELm43ELy6364136223846793005EEENS4_13random_deviceEERKZ14_trace_param_fILb1EfS1_EvPKT1_RKN8pybind117array_tIT0_Li17EEEmimSF_mmSF_SF_SF_SF_mmiRSG_SJ_SJ_RNSE_IiLi16EEESL_SL_SL_RSF_RKNSD_6kwargsEEUlfE_EiPSA_PKSF_iOT3_RT2_iiiSF_iiSF_SF_SF_SF_iPSF_S10_PS10_PiS12_S12_S12_SM_
00000000000a5280 T int trace_estimator<true, float, DenseEigenLinearOperator<float> const, ThreadedRNG64<std::__1::linear_congruential_engine<unsigned long long, 6364136223846793005ull, 1442695040888963407ull, 0ull>, std::__1::random_device>, std::__1::identity const&>(DenseEigenLinearOperator<float> const*, float const*, int, std::__1::identity const&, ThreadedRNG64<std::__1::linear_congruential_engine<unsigned long long, 6364136223846793005ull, 1442695040888963407ull, 0ull>, std::__1::random_device>&, int, int, int, float, int, int, float, float, float, float, int, float*, float*, float**, int*, int*, int*, int*, float&)
00000000000b0790 T __Z15trace_estimatorILb1EfK24DenseEigenLinearOperatorIfE13ThreadedRNG64INSt3__126linear_congruential_engineIyLy6364136223846793005ELy1442695040888963407ELy0EEENS4_13random_deviceEERKZ14_trace_param_fILb1EfS1_EvPKT1_RKN8pybind117array_tIT0_Li17EEEmimSF_mmSF_SF_SF_SF_mmiRSG_SJ_SJ_RNSE_IiLi16EEESL_SL_SL_RSF_RKNSD_6kwargsEEUlfE0_EiPSA_PKSF_iOT3_RT2_iiiSF_iiSF_SF_SF_SF_iPSF_S10_PS10_PiS12_S12_S12_SM_
00000000000b6390 T __Z15trace_estimatorILb1EfK24DenseEigenLinearOperatorIfE13ThreadedRNG64INSt3__126linear_congruential_engineIyLy6364136223846793005ELy1442695040888963407ELy0EEENS4_13random_deviceEERKZ14_trace_param_fILb1EfS1_EvPKT1_RKN8pybind117array_tIT0_Li17EEEmimSF_mmSF_SF_SF_SF_mmiRSG_SJ_SJ_RNSE_IiLi16EEESL_SL_SL_RSF_RKNSD_6kwargsEEUlfE1_EiPSA_PKSF_iOT3_RT2_iiiSF_iiSF_SF_SF_SF_iPSF_S10_PS10_PiS12_S12_S12_SM_
00000000000aad50 T __Z15trace_estimatorILb1EfK24DenseEigenLinearOperatorIfE13ThreadedRNG64INSt3__126linear_congruential_engineIyLy6364136223846793005ELy1442695040888963407ELy0EEENS4_13random_deviceEERKZ14_trace_param_fILb1EfS1_EvPKT1_RKN8pybind117array_tIT0_Li17EEEmimSF_mmSF_SF_SF_SF_mmiRSG_SJ_SJ_RNSE_IiLi16EEESL_SL_SL_RSF_RKNSD_6kwargsEEUlfE_EiPSA_PKSF_iOT3_RT2_iiiSF_iiSF_SF_SF_SF_iPSF_S10_PS10_PiS12_S12_S12_SM_
000000000006fcb0 T int trace_estimator<true, float, SparseEigenLinearOperator<float> const, ThreadedRNG64<SplitMix64, std::__1::random_device>, std::__1::identity const&>(SparseEigenLinearOperator<float> const*, float const*, int, std::__1::identity const&, ThreadedRNG64<SplitMix64, std::__1::random_device>&, int, int, int, float, int, int, float, float, float, float, int, float*, float*, float**, int*, int*, int*, int*, float&)
000000000007bb10 T __Z15trace_estimatorILb1EfK25SparseEigenLinearOperatorIfE13ThreadedRNG64I10SplitMix64NSt3__113random_deviceEERKZ14_trace_param_fILb1EfS1_EvPKT1_RKN8pybind117array_tIT0_Li17EEEmimSE_mmSE_SE_SE_SE_mmiRSF_SI_SI_RNSD_IiLi16EEESK_SK_SK_RSE_RKNSC_6kwargsEEUlfE0_EiPS9_PKSE_iOT3_RT2_iiiSE_iiSE_SE_SE_SE_iPSE_SZ_PSZ_PiS11_S11_S11_SL_
0000000000081790 T __Z15trace_estimatorILb1EfK25SparseEigenLinearOperatorIfE13ThreadedRNG64I10SplitMix64NSt3__113random_deviceEERKZ14_trace_param_fILb1EfS1_EvPKT1_RKN8pybind117array_tIT0_Li17EEEmimSE_mmSE_SE_SE_SE_mmiRSF_SI_SI_RNSD_IiLi16EEESK_SK_SK_RSE_RKNSC_6kwargsEEUlfE1_EiPS9_PKSE_iOT3_RT2_iiiSE_iiSE_SE_SE_SE_iPSE_SZ_PSZ_PiS11_S11_S11_SL_
0000000000076250 T __Z15trace_estimatorILb1EfK25SparseEigenLinearOperatorIfE13ThreadedRNG64I10SplitMix64NSt3__113random_deviceEERKZ14_trace_param_fILb1EfS1_EvPKT1_RKN8pybind117array_tIT0_Li17EEEmimSE_mmSE_SE_SE_SE_mmiRSF_SI_SI_RNSD_IiLi16EEESK_SK_SK_RSE_RKNSC_6kwargsEEUlfE_EiPS9_PKSE_iOT3_RT2_iiiSE_iiSE_SE_SE_SE_iPSE_SZ_PSZ_PiS11_S11_S11_SL_
0000000000071080 T int trace_estimator<true, float, SparseEigenLinearOperator<float> const, ThreadedRNG64<Xoshiro256StarStar, std::__1::random_device>, std::__1::identity const&>(SparseEigenLinearOperator<float> const*, float const*, int, std::__1::identity const&, ThreadedRNG64<Xoshiro256StarStar, std::__1::random_device>&, int, int, int, float, int, int, float, float, float, float, int, float*, float*, float**, int*, int*, int*, int*, float&)
000000000007c580 T __Z15trace_estimatorILb1EfK25SparseEigenLinearOperatorIfE13ThreadedRNG64I18Xoshiro256StarStarNSt3__113random_deviceEERKZ14_trace_param_fILb1EfS1_EvPKT1_RKN8pybind117array_tIT0_Li17EEEmimSE_mmSE_SE_SE_SE_mmiRSF_SI_SI_RNSD_IiLi16EEESK_SK_SK_RSE_RKNSC_6kwargsEEUlfE0_EiPS9_PKSE_iOT3_RT2_iiiSE_iiSE_SE_SE_SE_iPSE_SZ_PSZ_PiS11_S11_S11_SL_
00000000000821c0 T __Z15trace_estimatorILb1EfK25SparseEigenLinearOperatorIfE13ThreadedRNG64I18Xoshiro256StarStarNSt3__113random_deviceEERKZ14_trace_param_fILb1EfS1_EvPKT1_RKN8pybind117array_tIT0_Li17EEEmimSE_mmSE_SE_SE_SE_mmiRSF_SI_SI_RNSD_IiLi16EEESK_SK_SK_RSE_RKNSC_6kwargsEEUlfE1_EiPS9_PKSE_iOT3_RT2_iiiSE_iiSE_SE_SE_SE_iPSE_SZ_PSZ_PiS11_S11_S11_SL_
0000000000076c00 T __Z15trace_estimatorILb1EfK25SparseEigenLinearOperatorIfE13ThreadedRNG64I18Xoshiro256StarStarNSt3__113random_deviceEERKZ14_trace_param_fILb1EfS1_EvPKT1_RKN8pybind117array_tIT0_Li17EEEmimSE_mmSE_SE_SE_SE_mmiRSF_SI_SI_RNSD_IiLi16EEESK_SK_SK_RSE_RKNSC_6kwargsEEUlfE_EiPS9_PKSE_iOT3_RT2_iiiSE_iiSE_SE_SE_SE_iPSE_SZ_PSZ_PiS11_S11_S11_SL_
0000000000072540 T int trace_estimator<true, float, SparseEigenLinearOperator<float> const, ThreadedRNG64<pcg_detail::engine<unsigned long long, unsigned __int128, pcg_detail::xsl_rr_mixin<unsigned long long, unsigned __int128>, false, pcg_detail::specific_stream<unsigned __int128>, pcg_detail::default_multiplier<unsigned __int128> >, std::__1::random_device>, std::__1::identity const&>(SparseEigenLinearOperator<float> const*, float const*, int, std::__1::identity const&, ThreadedRNG64<pcg_detail::engine<unsigned long long, unsigned __int128, pcg_detail::xsl_rr_mixin<unsigned long long, unsigned __int128>, false, pcg_detail::specific_stream<unsigned __int128>, pcg_detail::default_multiplier<unsigned __int128> >, std::__1::random_device>&, int, int, int, float, int, int, float, float, float, float, int, float*, float*, float**, int*, int*, int*, int*, float&)
000000000007da60 T __Z15trace_estimatorILb1EfK25SparseEigenLinearOperatorIfE13ThreadedRNG64IN10pcg_detail6engineIyoNS4_12xsl_rr_mixinIyoEELb0ENS4_15specific_streamIoEENS4_18default_multiplierIoEEEENSt3__113random_deviceEERKZ14_trace_param_fILb1EfS1_EvPKT1_RKN8pybind117array_tIT0_Li17EEEmimSM_mmSM_SM_SM_SM_mmiRSN_SQ_SQ_RNSL_IiLi16EEESS_SS_SS_RSM_RKNSK_6kwargsEEUlfE0_EiPSH_PKSM_iOT3_RT2_iiiSM_iiSM_SM_SM_SM_iPSM_S17_PS17_PiS19_S19_S19_ST_
0000000000083620 T __Z15trace_estimatorILb1EfK25SparseEigenLinearOperatorIfE13ThreadedRNG64IN10pcg_detail6engineIyoNS4_12xsl_rr_mixinIyoEELb0ENS4_15specific_streamIoEENS4_18default_multiplierIoEEEENSt3__113random_deviceEERKZ14_trace_param_fILb1EfS1_EvPKT1_RKN8pybind117array_tIT0_Li17EEEmimSM_mmSM_SM_SM_SM_mmiRSN_SQ_SQ_RNSL_IiLi16EEESS_SS_SS_RSM_RKNSK_6kwargsEEUlfE1_EiPSH_PKSM_iOT3_RT2_iiiSM_iiSM_SM_SM_SM_iPSM_S17_PS17_PiS19_S19_S19_ST_
0000000000077f60 T __Z15trace_estimatorILb1EfK25SparseEigenLinearOperatorIfE13ThreadedRNG64IN10pcg_detail6engineIyoNS4_12xsl_rr_mixinIyoEELb0ENS4_15specific_streamIoEENS4_18default_multiplierIoEEEENSt3__113random_deviceEERKZ14_trace_param_fILb1EfS1_EvPKT1_RKN8pybind117array_tIT0_Li17EEEmimSM_mmSM_SM_SM_SM_mmiRSN_SQ_SQ_RNSL_IiLi16EEESS_SS_SS_RSM_RKNSK_6kwargsEEUlfE_EiPSH_PKSM_iOT3_RT2_iiiSM_iiSM_SM_SM_SM_iPSM_S17_PS17_PiS19_S19_S19_ST_
0000000000072fa0 T int trace_estimator<true, float, SparseEigenLinearOperator<float> const, ThreadedRNG64<std::__1::mersenne_twister_engine<unsigned long long, 64ul, 312ul, 156ul, 31ul, 13043109905998158313ull, 29ul, 6148914691236517205ull, 17ul, 8202884508482404352ull, 37ul, 18444473444759240704ull, 43ul, 6364136223846793005ull>, std::__1::random_device>, std::__1::identity const&>(SparseEigenLinearOperator<float> const*, float const*, int, std::__1::identity const&, ThreadedRNG64<std::__1::mersenne_twister_engine<unsigned long long, 64ul, 312ul, 156ul, 31ul, 13043109905998158313ull, 29ul, 6148914691236517205ull, 17ul, 8202884508482404352ull, 37ul, 18444473444759240704ull, 43ul, 6364136223846793005ull>, std::__1::random_device>&, int, int, int, float, int, int, float, float, float, float, int, float*, float*, float**, int*, int*, int*, int*, float&)
000000000007e4d0 T __Z15trace_estimatorILb1EfK25SparseEigenLinearOperatorIfE13ThreadedRNG64INSt3__123mersenne_twister_engineIyLm64ELm312ELm156ELm31ELy13043109905998158313ELm29ELy6148914691236517205ELm17ELy8202884508482404352ELm37ELy18444473444759240704ELm43ELy6364136223846793005EEENS4_13random_deviceEERKZ14_trace_param_fILb1EfS1_EvPKT1_RKN8pybind117array_tIT0_Li17EEEmimSF_mmSF_SF_SF_SF_mmiRSG_SJ_SJ_RNSE_IiLi16EEESL_SL_SL_RSF_RKNSD_6kwargsEEUlfE0_EiPSA_PKSF_iOT3_RT2_iiiSF_iiSF_SF_SF_SF_iPSF_S10_PS10_PiS12_S12_S12_SM_
0000000000084050 T __Z15trace_estimatorILb1EfK25SparseEigenLinearOperatorIfE13ThreadedRNG64INSt3__123mersenne_twister_engineIyLm64ELm312ELm156ELm31ELy13043109905998158313ELm29ELy6148914691236517205ELm17ELy8202884508482404352ELm37ELy18444473444759240704ELm43ELy6364136223846793005EEENS4_13random_deviceEERKZ14_trace_param_fILb1EfS1_EvPKT1_RKN8pybind117array_tIT0_Li17EEEmimSF_mmSF_SF_SF_SF_mmiRSG_SJ_SJ_RNSE_IiLi16EEESL_SL_SL_RSF_RKNSD_6kwargsEEUlfE1_EiPSA_PKSF_iOT3_RT2_iiiSF_iiSF_SF_SF_SF_iPSF_S10_PS10_PiS12_S12_S12_SM_
0000000000078910 T __Z15trace_estimatorILb1EfK25SparseEigenLinearOperatorIfE13ThreadedRNG64INSt3__123mersenne_twister_engineIyLm64ELm312ELm156ELm31ELy13043109905998158313ELm29ELy6148914691236517205ELm17ELy8202884508482404352ELm37ELy18444473444759240704ELm43ELy6364136223846793005EEENS4_13random_deviceEERKZ14_trace_param_fILb1EfS1_EvPKT1_RKN8pybind117array_tIT0_Li17EEEmimSF_mmSF_SF_SF_SF_mmiRSG_SJ_SJ_RNSE_IiLi16EEESL_SL_SL_RSF_RKNSD_6kwargsEEUlfE_EiPSA_PKSF_iOT3_RT2_iiiSF_iiSF_SF_SF_SF_iPSF_S10_PS10_PiS12_S12_S12_SM_
0000000000071ae0 T int trace_estimator<true, float, SparseEigenLinearOperator<float> const, ThreadedRNG64<std::__1::linear_congruential_engine<unsigned long long, 6364136223846793005ull, 1442695040888963407ull, 0ull>, std::__1::random_device>, std::__1::identity const&>(SparseEigenLinearOperator<float> const*, float const*, int, std::__1::identity const&, ThreadedRNG64<std::__1::linear_congruential_engine<unsigned long long, 6364136223846793005ull, 1442695040888963407ull, 0ull>, std::__1::random_device>&, int, int, int, float, int, int, float, float, float, float, int, float*, float*, float**, int*, int*, int*, int*, float&)
000000000007cff0 T __Z15trace_estimatorILb1EfK25SparseEigenLinearOperatorIfE13ThreadedRNG64INSt3__126linear_congruential_engineIyLy6364136223846793005ELy1442695040888963407ELy0EEENS4_13random_deviceEERKZ14_trace_param_fILb1EfS1_EvPKT1_RKN8pybind117array_tIT0_Li17EEEmimSF_mmSF_SF_SF_SF_mmiRSG_SJ_SJ_RNSE_IiLi16EEESL_SL_SL_RSF_RKNSD_6kwargsEEUlfE0_EiPSA_PKSF_iOT3_RT2_iiiSF_iiSF_SF_SF_SF_iPSF_S10_PS10_PiS12_S12_S12_SM_
0000000000082bf0 T __Z15trace_estimatorILb1EfK25SparseEigenLinearOperatorIfE13ThreadedRNG64INSt3__126linear_congruential_engineIyLy6364136223846793005ELy1442695040888963407ELy0EEENS4_13random_deviceEERKZ14_trace_param_fILb1EfS1_EvPKT1_RKN8pybind117array_tIT0_Li17EEEmimSF_mmSF_SF_SF_SF_mmiRSG_SJ_SJ_RNSE_IiLi16EEESL_SL_SL_RSF_RKNSD_6kwargsEEUlfE1_EiPSA_PKSF_iOT3_RT2_iiiSF_iiSF_SF_SF_SF_iPSF_S10_PS10_PiS12_S12_S12_SM_
00000000000775b0 T __Z15trace_estimatorILb1EfK25SparseEigenLinearOperatorIfE13ThreadedRNG64INSt3__126linear_congruential_engineIyLy6364136223846793005ELy1442695040888963407ELy0EEENS4_13random_deviceEERKZ14_trace_param_fILb1EfS1_EvPKT1_RKN8pybind117array_tIT0_Li17EEEmimSF_mmSF_SF_SF_SF_mmiRSG_SJ_SJ_RNSE_IiLi16EEESL_SL_SL_RSF_RKNSD_6kwargsEEUlfE_EiPSA_PKSF_iOT3_RT2_iiiSF_iiSF_SF_SF_SF_iPSF_S10_PS10_PiS12_S12_S12_SM_
000000000004b210 T void _trace_param_rne<false, double, SparseEigenLinearOperator<double>, std::__1::identity const&>(SparseEigenLinearOperator<double> const*, std::__1::identity const&, pybind11::array_t<double, 17> const&, unsigned long, int, unsigned long, double, unsigned long, unsigned long, double, double, double, double, unsigned long, unsigned long, int, pybind11::array_t<double, 17>&, pybind11::array_t<double, 17>&, pybind11::array_t<double, 17>&, pybind11::array_t<int, 16>&, pybind11::array_t<int, 16>&, pybind11::array_t<int, 16>&, pybind11::array_t<int, 16>&, double&)
000000000004b870 T void _trace_param_rne<false, double, SparseEigenLinearOperator<double>, void _trace_param_f<false, double, SparseEigenLinearOperator<double> >(SparseEigenLinearOperator<double> const*, pybind11::array_t<double, 17> const&, unsigned long, int, unsigned long, double, unsigned long, unsigned long, double, double, double, double, unsigned long, unsigned long, int, pybind11::array_t<double, 17>&, pybind11::array_t<double, 17>&, pybind11::array_t<double, 17>&, pybind11::array_t<int, 16>&, pybind11::array_t<int, 16>&, pybind11::array_t<int, 16>&, pybind11::array_t<int, 16>&, double&, pybind11::kwargs const&)::'lambda0'(double) const&>(SparseEigenLinearOperator<double> const*, void _trace_param_f<false, double, SparseEigenLinearOperator<double> >(SparseEigenLinearOperator<double> const*, pybind11::array_t<double, 17> const&, unsigned long, int, unsigned long, double, unsigned long, unsigned long, double, double, double, double, unsigned long, unsigned long, int, pybind11::array_t<double, 17>&, pybind11::array_t<double, 17>&, pybind11::array_t<double, 17>&, pybind11::array_t<int, 16>&, pybind11::array_t<int, 16>&, pybind11::array_t<int, 16>&, pybind11::array_t<int, 16>&, double&, pybind11::kwargs const&)::'lambda0'(double) const&, pybind11::array_t<double, 17> const&, unsigned long, int, unsigned long, double, unsigned long, unsigned long, double, double, double, double, unsigned long, unsigned long, int, pybind11::array_t<double, 17>&, pybind11::array_t<double, 17>&, pybind11::array_t<double, 17>&, pybind11::array_t<int, 16>&, pybind11::array_t<int, 16>&, pybind11::array_t<int, 16>&, pybind11::array_t<int, 16>&, double&)
000000000004bba0 T void _trace_param_rne<false, double, SparseEigenLinearOperator<double>, void _trace_param_f<false, double, SparseEigenLinearOperator<double> >(SparseEigenLinearOperator<double> const*, pybind11::array_t<double, 17> const&, unsigned long, int, unsigned long, double, unsigned long, unsigned long, double, double, double, double, unsigned long, unsigned long, int, pybind11::array_t<double, 17>&, pybind11::array_t<double, 17>&, pybind11::array_t<double, 17>&, pybind11::array_t<int, 16>&, pybind11::array_t<int, 16>&, pybind11::array_t<int, 16>&, pybind11::array_t<int, 16>&, double&, pybind11::kwargs const&)::'lambda1'(double) const&>(SparseEigenLinearOperator<double> const*, void _trace_param_f<false, double, SparseEigenLinearOperator<double> >(SparseEigenLinearOperator<double> const*, pybind11::array_t<double, 17> const&, unsigned long, int, unsigned long, double, unsigned long, unsigned long, double, double, double, double, unsigned long, unsigned long, int, pybind11::array_t<double, 17>&, pybind11::array_t<double, 17>&, pybind11::array_t<double, 17>&, pybind11::array_t<int, 16>&, pybind11::array_t<int, 16>&, pybind11::array_t<int, 16>&, pybind11::array_t<int, 16>&, double&, pybind11::kwargs const&)::'lambda1'(double) const&, pybind11::array_t<double, 17> const&, unsigned long, int, unsigned long, double, unsigned long, unsigned long, double, double, double, double, unsigned long, unsigned long, int, pybind11::array_t<double, 17>&, pybind11::array_t<double, 17>&, pybind11::array_t<double, 17>&, pybind11::array_t<int, 16>&, pybind11::array_t<int, 16>&, pybind11::array_t<int, 16>&, pybind11::array_t<int, 16>&, double&)
000000000004b540 T void _trace_param_rne<false, double, SparseEigenLinearOperator<double>, void _trace_param_f<false, double, SparseEigenLinearOperator<double> >(SparseEigenLinearOperator<double> const*, pybind11::array_t<double, 17> const&, unsigned long, int, unsigned long, double, unsigned long, unsigned long, double, double, double, double, unsigned long, unsigned long, int, pybind11::array_t<double, 17>&, pybind11::array_t<double, 17>&, pybind11::array_t<double, 17>&, pybind11::array_t<int, 16>&, pybind11::array_t<int, 16>&, pybind11::array_t<int, 16>&, pybind11::array_t<int, 16>&, double&, pybind11::kwargs const&)::'lambda'(double) const&>(SparseEigenLinearOperator<double> const*, void _trace_param_f<false, double, SparseEigenLinearOperator<double> >(SparseEigenLinearOperator<double> const*, pybind11::array_t<double, 17> const&, unsigned long, int, unsigned long, double, unsigned long, unsigned long, double, double, double, double, unsigned long, unsigned long, int, pybind11::array_t<double, 17>&, pybind11::array_t<double, 17>&, pybind11::array_t<double, 17>&, pybind11::array_t<int, 16>&, pybind11::array_t<int, 16>&, pybind11::array_t<int, 16>&, pybind11::array_t<int, 16>&, double&, pybind11::kwargs const&)::'lambda'(double) const&, pybind11::array_t<double, 17> const&, unsigned long, int, unsigned long, double, unsigned long, unsigned long, double, double, double, double, unsigned long, unsigned long, int, pybind11::array_t<double, 17>&, pybind11::array_t<double, 17>&, pybind11::array_t<double, 17>&, pybind11::array_t<int, 16>&, pybind11::array_t<int, 16>&, pybind11::array_t<int, 16>&, pybind11::array_t<int, 16>&, double&)
00000000000235e0 T void _trace_param_rne<false, float, SparseEigenLinearOperator<float>, std::__1::identity const&>(SparseEigenLinearOperator<float> const*, std::__1::identity const&, pybind11::array_t<float, 17> const&, unsigned long, int, unsigned long, float, unsigned long, unsigned long, float, float, float, float, unsigned long, unsigned long, int, pybind11::array_t<float, 17>&, pybind11::array_t<float, 17>&, pybind11::array_t<float, 17>&, pybind11::array_t<int, 16>&, pybind11::array_t<int, 16>&, pybind11::array_t<int, 16>&, pybind11::array_t<int, 16>&, float&)
0000000000023c40 T void _trace_param_rne<false, float, SparseEigenLinearOperator<float>, void _trace_param_f<false, float, SparseEigenLinearOperator<float> >(SparseEigenLinearOperator<float> const*, pybind11::array_t<float, 17> const&, unsigned long, int, unsigned long, float, unsigned long, unsigned long, float, float, float, float, unsigned long, unsigned long, int, pybind11::array_t<float, 17>&, pybind11::array_t<float, 17>&, pybind11::array_t<float, 17>&, pybind11::array_t<int, 16>&, pybind11::array_t<int, 16>&, pybind11::array_t<int, 16>&, pybind11::array_t<int, 16>&, float&, pybind11::kwargs const&)::'lambda0'(float) const&>(SparseEigenLinearOperator<float> const*, void _trace_param_f<false, float, SparseEigenLinearOperator<float> >(SparseEigenLinearOperator<float> const*, pybind11::array_t<float, 17> const&, unsigned long, int, unsigned long, float, unsigned long, unsigned long, float, float, float, float, unsigned long, unsigned long, int, pybind11::array_t<float, 17>&, pybind11::array_t<float, 17>&, pybind11::array_t<float, 17>&, pybind11::array_t<int, 16>&, pybind11::array_t<int, 16>&, pybind11::array_t<int, 16>&, pybind11::array_t<int, 16>&, float&, pybind11::kwargs const&)::'lambda0'(float) const&, pybind11::array_t<float, 17> const&, unsigned long, int, unsigned long, float, unsigned long, unsigned long, float, float, float, float, unsigned long, unsigned long, int, pybind11::array_t<float, 17>&, pybind11::array_t<float, 17>&, pybind11::array_t<float, 17>&, pybind11::array_t<int, 16>&, pybind11::array_t<int, 16>&, pybind11::array_t<int, 16>&, pybind11::array_t<int, 16>&, float&)
0000000000023f70 T void _trace_param_rne<false, float, SparseEigenLinearOperator<float>, void _trace_param_f<false, float, SparseEigenLinearOperator<float> >(SparseEigenLinearOperator<float> const*, pybind11::array_t<float, 17> const&, unsigned long, int, unsigned long, float, unsigned long, unsigned long, float, float, float, float, unsigned long, unsigned long, int, pybind11::array_t<float, 17>&, pybind11::array_t<float, 17>&, pybind11::array_t<float, 17>&, pybind11::array_t<int, 16>&, pybind11::array_t<int, 16>&, pybind11::array_t<int, 16>&, pybind11::array_t<int, 16>&, float&, pybind11::kwargs const&)::'lambda1'(float) const&>(SparseEigenLinearOperator<float> const*, void _trace_param_f<false, float, SparseEigenLinearOperator<float> >(SparseEigenLinearOperator<float> const*, pybind11::array_t<float, 17> const&, unsigned long, int, unsigned long, float, unsigned long, unsigned long, float, float, float, float, unsigned long, unsigned long, int, pybind11::array_t<float, 17>&, pybind11::array_t<float, 17>&, pybind11::array_t<float, 17>&, pybind11::array_t<int, 16>&, pybind11::array_t<int, 16>&, pybind11::array_t<int, 16>&, pybind11::array_t<int, 16>&, float&, pybind11::kwargs const&)::'lambda1'(float) const&, pybind11::array_t<float, 17> const&, unsigned long, int, unsigned long, float, unsigned long, unsigned long, float, float, float, float, unsigned long, unsigned long, int, pybind11::array_t<float, 17>&, pybind11::array_t<float, 17>&, pybind11::array_t<float, 17>&, pybind11::array_t<int, 16>&, pybind11::array_t<int, 16>&, pybind11::array_t<int, 16>&, pybind11::array_t<int, 16>&, float&)
0000000000023910 T void _trace_param_rne<false, float, SparseEigenLinearOperator<float>, void _trace_param_f<false, float, SparseEigenLinearOperator<float> >(SparseEigenLinearOperator<float> const*, pybind11::array_t<float, 17> const&, unsigned long, int, unsigned long, float, unsigned long, unsigned long, float, float, float, float, unsigned long, unsigned long, int, pybind11::array_t<float, 17>&, pybind11::array_t<float, 17>&, pybind11::array_t<float, 17>&, pybind11::array_t<int, 16>&, pybind11::array_t<int, 16>&, pybind11::array_t<int, 16>&, pybind11::array_t<int, 16>&, float&, pybind11::kwargs const&)::'lambda'(float) const&>(SparseEigenLinearOperator<float> const*, void _trace_param_f<false, float, SparseEigenLinearOperator<float> >(SparseEigenLinearOperator<float> const*, pybind11::array_t<float, 17> const&, unsigned long, int, unsigned long, float, unsigned long, unsigned long, float, float, float, float, unsigned long, unsigned long, int, pybind11::array_t<float, 17>&, pybind11::array_t<float, 17>&, pybind11::array_t<float, 17>&, pybind11::array_t<int, 16>&, pybind11::array_t<int, 16>&, pybind11::array_t<int, 16>&, pybind11::array_t<int, 16>&, float&, pybind11::kwargs const&)::'lambda'(float) const&, pybind11::array_t<float, 17> const&, unsigned long, int, unsigned long, float, unsigned long, unsigned long, float, float, float, float, unsigned long, unsigned long, int, pybind11::array_t<float, 17>&, pybind11::array_t<float, 17>&, pybind11::array_t<float, 17>&, pybind11::array_t<int, 16>&, pybind11::array_t<int, 16>&, pybind11::array_t<int, 16>&, pybind11::array_t<int, 16>&, float&)
00000000000edd20 T void _trace_param_rne<true, double, PyLinearOperator<double>, std::__1::identity const&>(PyLinearOperator<double> const*, std::__1::identity const&, pybind11::array_t<double, 17> const&, unsigned long, int, unsigned long, double, unsigned long, unsigned long, double, double, double, double, unsigned long, unsigned long, int, pybind11::array_t<double, 17>&, pybind11::array_t<double, 17>&, pybind11::array_t<double, 17>&, pybind11::array_t<int, 16>&, pybind11::array_t<int, 16>&, pybind11::array_t<int, 16>&, pybind11::array_t<int, 16>&, double&)
00000000000ee380 T void _trace_param_rne<true, double, PyLinearOperator<double>, void _trace_param_f<true, double, PyLinearOperator<double> >(PyLinearOperator<double> const*, pybind11::array_t<double, 17> const&, unsigned long, int, unsigned long, double, unsigned long, unsigned long, double, double, double, double, unsigned long, unsigned long, int, pybind11::array_t<double, 17>&, pybind11::array_t<double, 17>&, pybind11::array_t<double, 17>&, pybind11::array_t<int, 16>&, pybind11::array_t<int, 16>&, pybind11::array_t<int, 16>&, pybind11::array_t<int, 16>&, double&, pybind11::kwargs const&)::'lambda0'(double) const&>(PyLinearOperator<double> const*, void _trace_param_f<true, double, PyLinearOperator<double> >(PyLinearOperator<double> const*, pybind11::array_t<double, 17> const&, unsigned long, int, unsigned long, double, unsigned long, unsigned long, double, double, double, double, unsigned long, unsigned long, int, pybind11::array_t<double, 17>&, pybind11::array_t<double, 17>&, pybind11::array_t<double, 17>&, pybind11::array_t<int, 16>&, pybind11::array_t<int, 16>&, pybind11::array_t<int, 16>&, pybind11::array_t<int, 16>&, double&, pybind11::kwargs const&)::'lambda0'(double) const&, pybind11::array_t<double, 17> const&, unsigned long, int, unsigned long, double, unsigned long, unsigned long, double, double, double, double, unsigned long, unsigned long, int, pybind11::array_t<double, 17>&, pybind11::array_t<double, 17>&, pybind11::array_t<double, 17>&, pybind11::array_t<int, 16>&, pybind11::array_t<int, 16>&, pybind11::array_t<int, 16>&, pybind11::array_t<int, 16>&, double&)
00000000000ee6b0 T void _trace_param_rne<true, double, PyLinearOperator<double>, void _trace_param_f<true, double, PyLinearOperator<double> >(PyLinearOperator<double> const*, pybind11::array_t<double, 17> const&, unsigned long, int, unsigned long, double, unsigned long, unsigned long, double, double, double, double, unsigned long, unsigned long, int, pybind11::array_t<double, 17>&, pybind11::array_t<double, 17>&, pybind11::array_t<double, 17>&, pybind11::array_t<int, 16>&, pybind11::array_t<int, 16>&, pybind11::array_t<int, 16>&, pybind11::array_t<int, 16>&, double&, pybind11::kwargs const&)::'lambda1'(double) const&>(PyLinearOperator<double> const*, void _trace_param_f<true, double, PyLinearOperator<double> >(PyLinearOperator<double> const*, pybind11::array_t<double, 17> const&, unsigned long, int, unsigned long, double, unsigned long, unsigned long, double, double, double, double, unsigned long, unsigned long, int, pybind11::array_t<double, 17>&, pybind11::array_t<double, 17>&, pybind11::array_t<double, 17>&, pybind11::array_t<int, 16>&, pybind11::array_t<int, 16>&, pybind11::array_t<int, 16>&, pybind11::array_t<int, 16>&, double&, pybind11::kwargs const&)::'lambda1'(double) const&, pybind11::array_t<double, 17> const&, unsigned long, int, unsigned long, double, unsigned long, unsigned long, double, double, double, double, unsigned long, unsigned long, int, pybind11::array_t<double, 17>&, pybind11::array_t<double, 17>&, pybind11::array_t<double, 17>&, pybind11::array_t<int, 16>&, pybind11::array_t<int, 16>&, pybind11::array_t<int, 16>&, pybind11::array_t<int, 16>&, double&)
00000000000ee050 T void _trace_param_rne<true, double, PyLinearOperator<double>, void _trace_param_f<true, double, PyLinearOperator<double> >(PyLinearOperator<double> const*, pybind11::array_t<double, 17> const&, unsigned long, int, unsigned long, double, unsigned long, unsigned long, double, double, double, double, unsigned long, unsigned long, int, pybind11::array_t<double, 17>&, pybind11::array_t<double, 17>&, pybind11::array_t<double, 17>&, pybind11::array_t<int, 16>&, pybind11::array_t<int, 16>&, pybind11::array_t<int, 16>&, pybind11::array_t<int, 16>&, double&, pybind11::kwargs const&)::'lambda'(double) const&>(PyLinearOperator<double> const*, void _trace_param_f<true, double, PyLinearOperator<double> >(PyLinearOperator<double> const*, pybind11::array_t<double, 17> const&, unsigned long, int, unsigned long, double, unsigned long, unsigned long, double, double, double, double, unsigned long, unsigned long, int, pybind11::array_t<double, 17>&, pybind11::array_t<double, 17>&, pybind11::array_t<double, 17>&, pybind11::array_t<int, 16>&, pybind11::array_t<int, 16>&, pybind11::array_t<int, 16>&, pybind11::array_t<int, 16>&, double&, pybind11::kwargs const&)::'lambda'(double) const&, pybind11::array_t<double, 17> const&, unsigned long, int, unsigned long, double, unsigned long, unsigned long, double, double, double, double, unsigned long, unsigned long, int, pybind11::array_t<double, 17>&, pybind11::array_t<double, 17>&, pybind11::array_t<double, 17>&, pybind11::array_t<int, 16>&, pybind11::array_t<int, 16>&, pybind11::array_t<int, 16>&, pybind11::array_t<int, 16>&, double&)
00000000000b9b60 T void _trace_param_rne<true, double, DenseEigenLinearOperator<double>, std::__1::identity const&>(DenseEigenLinearOperator<double> const*, std::__1::identity const&, pybind11::array_t<double, 17> const&, unsigned long, int, unsigned long, double, unsigned long, unsigned long, double, double, double, double, unsigned long, unsigned long, int, pybind11::array_t<double, 17>&, pybind11::array_t<double, 17>&, pybind11::array_t<double, 17>&, pybind11::array_t<int, 16>&, pybind11::array_t<int, 16>&, pybind11::array_t<int, 16>&, pybind11::array_t<int, 16>&, double&)
00000000000ba1c0 T void _trace_param_rne<true, double, DenseEigenLinearOperator<double>, void _trace_param_f<true, double, DenseEigenLinearOperator<double> >(DenseEigenLinearOperator<double> const*, pybind11::array_t<double, 17> const&, unsigned long, int, unsigned long, double, unsigned long, unsigned long, double, double, double, double, unsigned long, unsigned long, int, pybind11::array_t<double, 17>&, pybind11::array_t<double, 17>&, pybind11::array_t<double, 17>&, pybind11::array_t<int, 16>&, pybind11::array_t<int, 16>&, pybind11::array_t<int, 16>&, pybind11::array_t<int, 16>&, double&, pybind11::kwargs const&)::'lambda0'(double) const&>(DenseEigenLinearOperator<double> const*, void _trace_param_f<true, double, DenseEigenLinearOperator<double> >(DenseEigenLinearOperator<double> const*, pybind11::array_t<double, 17> const&, unsigned long, int, unsigned long, double, unsigned long, unsigned long, double, double, double, double, unsigned long, unsigned long, int, pybind11::array_t<double, 17>&, pybind11::array_t<double, 17>&, pybind11::array_t<double, 17>&, pybind11::array_t<int, 16>&, pybind11::array_t<int, 16>&, pybind11::array_t<int, 16>&, pybind11::array_t<int, 16>&, double&, pybind11::kwargs const&)::'lambda0'(double) const&, pybind11::array_t<double, 17> const&, unsigned long, int, unsigned long, double, unsigned long, unsigned long, double, double, double, double, unsigned long, unsigned long, int, pybind11::array_t<double, 17>&, pybind11::array_t<double, 17>&, pybind11::array_t<double, 17>&, pybind11::array_t<int, 16>&, pybind11::array_t<int, 16>&, pybind11::array_t<int, 16>&, pybind11::array_t<int, 16>&, double&)
00000000000ba4f0 T void _trace_param_rne<true, double, DenseEigenLinearOperator<double>, void _trace_param_f<true, double, DenseEigenLinearOperator<double> >(DenseEigenLinearOperator<double> const*, pybind11::array_t<double, 17> const&, unsigned long, int, unsigned long, double, unsigned long, unsigned long, double, double, double, double, unsigned long, unsigned long, int, pybind11::array_t<double, 17>&, pybind11::array_t<double, 17>&, pybind11::array_t<double, 17>&, pybind11::array_t<int, 16>&, pybind11::array_t<int, 16>&, pybind11::array_t<int, 16>&, pybind11::array_t<int, 16>&, double&, pybind11::kwargs const&)::'lambda1'(double) const&>(DenseEigenLinearOperator<double> const*, void _trace_param_f<true, double, DenseEigenLinearOperator<double> >(DenseEigenLinearOperator<double> const*, pybind11::array_t<double, 17> const&, unsigned long, int, unsigned long, double, unsigned long, unsigned long, double, double, double, double, unsigned long, unsigned long, int, pybind11::array_t<double, 17>&, pybind11::array_t<double, 17>&, pybind11::array_t<double, 17>&, pybind11::array_t<int, 16>&, pybind11::array_t<int, 16>&, pybind11::array_t<int, 16>&, pybind11::array_t<int, 16>&, double&, pybind11::kwargs const&)::'lambda1'(double) const&, pybind11::array_t<double, 17> const&, unsigned long, int, unsigned long, double, unsigned long, unsigned long, double, double, double, double, unsigned long, unsigned long, int, pybind11::array_t<double, 17>&, pybind11::array_t<double, 17>&, pybind11::array_t<double, 17>&, pybind11::array_t<int, 16>&, pybind11::array_t<int, 16>&, pybind11::array_t<int, 16>&, pybind11::array_t<int, 16>&, double&)
00000000000b9e90 T void _trace_param_rne<true, double, DenseEigenLinearOperator<double>, void _trace_param_f<true, double, DenseEigenLinearOperator<double> >(DenseEigenLinearOperator<double> const*, pybind11::array_t<double, 17> const&, unsigned long, int, unsigned long, double, unsigned long, unsigned long, double, double, double, double, unsigned long, unsigned long, int, pybind11::array_t<double, 17>&, pybind11::array_t<double, 17>&, pybind11::array_t<double, 17>&, pybind11::array_t<int, 16>&, pybind11::array_t<int, 16>&, pybind11::array_t<int, 16>&, pybind11::array_t<int, 16>&, double&, pybind11::kwargs const&)::'lambda'(double) const&>(DenseEigenLinearOperator<double> const*, void _trace_param_f<true, double, DenseEigenLinearOperator<double> >(DenseEigenLinearOperator<double> const*, pybind11::array_t<double, 17> const&, unsigned long, int, unsigned long, double, unsigned long, unsigned long, double, double, double, double, unsigned long, unsigned long, int, pybind11::array_t<double, 17>&, pybind11::array_t<double, 17>&, pybind11::array_t<double, 17>&, pybind11::array_t<int, 16>&, pybind11::array_t<int, 16>&, pybind11::array_t<int, 16>&, pybind11::array_t<int, 16>&, double&, pybind11::kwargs const&)::'lambda'(double) const&, pybind11::array_t<double, 17> const&, unsigned long, int, unsigned long, double, unsigned long, unsigned long, double, double, double, double, unsigned long, unsigned long, int, pybind11::array_t<double, 17>&, pybind11::array_t<double, 17>&, pybind11::array_t<double, 17>&, pybind11::array_t<int, 16>&, pybind11::array_t<int, 16>&, pybind11::array_t<int, 16>&, pybind11::array_t<int, 16>&, double&)
0000000000085490 T void _trace_param_rne<true, double, SparseEigenLinearOperator<double>, std::__1::identity const&>(SparseEigenLinearOperator<double> const*, std::__1::identity const&, pybind11::array_t<double, 17> const&, unsigned long, int, unsigned long, double, unsigned long, unsigned long, double, double, double, double, unsigned long, unsigned long, int, pybind11::array_t<double, 17>&, pybind11::array_t<double, 17>&, pybind11::array_t<double, 17>&, pybind11::array_t<int, 16>&, pybind11::array_t<int, 16>&, pybind11::array_t<int, 16>&, pybind11::array_t<int, 16>&, double&)
0000000000085af0 T void _trace_param_rne<true, double, SparseEigenLinearOperator<double>, void _trace_param_f<true, double, SparseEigenLinearOperator<double> >(SparseEigenLinearOperator<double> const*, pybind11::array_t<double, 17> const&, unsigned long, int, unsigned long, double, unsigned long, unsigned long, double, double, double, double, unsigned long, unsigned long, int, pybind11::array_t<double, 17>&, pybind11::array_t<double, 17>&, pybind11::array_t<double, 17>&, pybind11::array_t<int, 16>&, pybind11::array_t<int, 16>&, pybind11::array_t<int, 16>&, pybind11::array_t<int, 16>&, double&, pybind11::kwargs const&)::'lambda0'(double) const&>(SparseEigenLinearOperator<double> const*, void _trace_param_f<true, double, SparseEigenLinearOperator<double> >(SparseEigenLinearOperator<double> const*, pybind11::array_t<double, 17> const&, unsigned long, int, unsigned long, double, unsigned long, unsigned long, double, double, double, double, unsigned long, unsigned long, int, pybind11::array_t<double, 17>&, pybind11::array_t<double, 17>&, pybind11::array_t<double, 17>&, pybind11::array_t<int, 16>&, pybind11::array_t<int, 16>&, pybind11::array_t<int, 16>&, pybind11::array_t<int, 16>&, double&, pybind11::kwargs const&)::'lambda0'(double) const&, pybind11::array_t<double, 17> const&, unsigned long, int, unsigned long, double, unsigned long, unsigned long, double, double, double, double, unsigned long, unsigned long, int, pybind11::array_t<double, 17>&, pybind11::array_t<double, 17>&, pybind11::array_t<double, 17>&, pybind11::array_t<int, 16>&, pybind11::array_t<int, 16>&, pybind11::array_t<int, 16>&, pybind11::array_t<int, 16>&, double&)
0000000000085e20 T void _trace_param_rne<true, double, SparseEigenLinearOperator<double>, void _trace_param_f<true, double, SparseEigenLinearOperator<double> >(SparseEigenLinearOperator<double> const*, pybind11::array_t<double, 17> const&, unsigned long, int, unsigned long, double, unsigned long, unsigned long, double, double, double, double, unsigned long, unsigned long, int, pybind11::array_t<double, 17>&, pybind11::array_t<double, 17>&, pybind11::array_t<double, 17>&, pybind11::array_t<int, 16>&, pybind11::array_t<int, 16>&, pybind11::array_t<int, 16>&, pybind11::array_t<int, 16>&, double&, pybind11::kwargs const&)::'lambda1'(double) const&>(SparseEigenLinearOperator<double> const*, void _trace_param_f<true, double, SparseEigenLinearOperator<double> >(SparseEigenLinearOperator<double> const*, pybind11::array_t<double, 17> const&, unsigned long, int, unsigned long, double, unsigned long, unsigned long, double, double, double, double, unsigned long, unsigned long, int, pybind11::array_t<double, 17>&, pybind11::array_t<double, 17>&, pybind11::array_t<double, 17>&, pybind11::array_t<int, 16>&, pybind11::array_t<int, 16>&, pybind11::array_t<int, 16>&, pybind11::array_t<int, 16>&, double&, pybind11::kwargs const&)::'lambda1'(double) const&, pybind11::array_t<double, 17> const&, unsigned long, int, unsigned long, double, unsigned long, unsigned long, double, double, double, double, unsigned long, unsigned long, int, pybind11::array_t<double, 17>&, pybind11::array_t<double, 17>&, pybind11::array_t<double, 17>&, pybind11::array_t<int, 16>&, pybind11::array_t<int, 16>&, pybind11::array_t<int, 16>&, pybind11::array_t<int, 16>&, double&)
00000000000857c0 T void _trace_param_rne<true, double, SparseEigenLinearOperator<double>, void _trace_param_f<true, double, SparseEigenLinearOperator<double> >(SparseEigenLinearOperator<double> const*, pybind11::array_t<double, 17> const&, unsigned long, int, unsigned long, double, unsigned long, unsigned long, double, double, double, double, unsigned long, unsigned long, int, pybind11::array_t<double, 17>&, pybind11::array_t<double, 17>&, pybind11::array_t<double, 17>&, pybind11::array_t<int, 16>&, pybind11::array_t<int, 16>&, pybind11::array_t<int, 16>&, pybind11::array_t<int, 16>&, double&, pybind11::kwargs const&)::'lambda'(double) const&>(SparseEigenLinearOperator<double> const*, void _trace_param_f<true, double, SparseEigenLinearOperator<double> >(SparseEigenLinearOperator<double> const*, pybind11::array_t<double, 17> const&, unsigned long, int, unsigned long, double, unsigned long, unsigned long, double, double, double, double, unsigned long, unsigned long, int, pybind11::array_t<double, 17>&, pybind11::array_t<double, 17>&, pybind11::array_t<double, 17>&, pybind11::array_t<int, 16>&, pybind11::array_t<int, 16>&, pybind11::array_t<int, 16>&, pybind11::array_t<int, 16>&, double&, pybind11::kwargs const&)::'lambda'(double) const&, pybind11::array_t<double, 17> const&, unsigned long, int, unsigned long, double, unsigned long, unsigned long, double, double, double, double, unsigned long, unsigned long, int, pybind11::array_t<double, 17>&, pybind11::array_t<double, 17>&, pybind11::array_t<double, 17>&, pybind11::array_t<int, 16>&, pybind11::array_t<int, 16>&, pybind11::array_t<int, 16>&, pybind11::array_t<int, 16>&, double&)
00000000000d3cf0 T void _trace_param_rne<true, float, PyLinearOperator<float>, std::__1::identity const&>(PyLinearOperator<float> const*, std::__1::identity const&, pybind11::array_t<float, 17> const&, unsigned long, int, unsigned long, float, unsigned long, unsigned long, float, float, float, float, unsigned long, unsigned long, int, pybind11::array_t<float, 17>&, pybind11::array_t<float, 17>&, pybind11::array_t<float, 17>&, pybind11::array_t<int, 16>&, pybind11::array_t<int, 16>&, pybind11::array_t<int, 16>&, pybind11::array_t<int, 16>&, float&)
00000000000d4350 T void _trace_param_rne<true, float, PyLinearOperator<float>, void _trace_param_f<true, float, PyLinearOperator<float> >(PyLinearOperator<float> const*, pybind11::array_t<float, 17> const&, unsigned long, int, unsigned long, float, unsigned long, unsigned long, float, float, float, float, unsigned long, unsigned long, int, pybind11::array_t<float, 17>&, pybind11::array_t<float, 17>&, pybind11::array_t<float, 17>&, pybind11::array_t<int, 16>&, pybind11::array_t<int, 16>&, pybind11::array_t<int, 16>&, pybind11::array_t<int, 16>&, float&, pybind11::kwargs const&)::'lambda0'(float) const&>(PyLinearOperator<float> const*, void _trace_param_f<true, float, PyLinearOperator<float> >(PyLinearOperator<float> const*, pybind11::array_t<float, 17> const&, unsigned long, int, unsigned long, float, unsigned long, unsigned long, float, float, float, float, unsigned long, unsigned long, int, pybind11::array_t<float, 17>&, pybind11::array_t<float, 17>&, pybind11::array_t<float, 17>&, pybind11::array_t<int, 16>&, pybind11::array_t<int, 16>&, pybind11::array_t<int, 16>&, pybind11::array_t<int, 16>&, float&, pybind11::kwargs const&)::'lambda0'(float) const&, pybind11::array_t<float, 17> const&, unsigned long, int, unsigned long, float, unsigned long, unsigned long, float, float, float, float, unsigned long, unsigned long, int, pybind11::array_t<float, 17>&, pybind11::array_t<float, 17>&, pybind11::array_t<float, 17>&, pybind11::array_t<int, 16>&, pybind11::array_t<int, 16>&, pybind11::array_t<int, 16>&, pybind11::array_t<int, 16>&, float&)
00000000000d4680 T void _trace_param_rne<true, float, PyLinearOperator<float>, void _trace_param_f<true, float, PyLinearOperator<float> >(PyLinearOperator<float> const*, pybind11::array_t<float, 17> const&, unsigned long, int, unsigned long, float, unsigned long, unsigned long, float, float, float, float, unsigned long, unsigned long, int, pybind11::array_t<float, 17>&, pybind11::array_t<float, 17>&, pybind11::array_t<float, 17>&, pybind11::array_t<int, 16>&, pybind11::array_t<int, 16>&, pybind11::array_t<int, 16>&, pybind11::array_t<int, 16>&, float&, pybind11::kwargs const&)::'lambda1'(float) const&>(PyLinearOperator<float> const*, void _trace_param_f<true, float, PyLinearOperator<float> >(PyLinearOperator<float> const*, pybind11::array_t<float, 17> const&, unsigned long, int, unsigned long, float, unsigned long, unsigned long, float, float, float, float, unsigned long, unsigned long, int, pybind11::array_t<float, 17>&, pybind11::array_t<float, 17>&, pybind11::array_t<float, 17>&, pybind11::array_t<int, 16>&, pybind11::array_t<int, 16>&, pybind11::array_t<int, 16>&, pybind11::array_t<int, 16>&, float&, pybind11::kwargs const&)::'lambda1'(float) const&, pybind11::array_t<float, 17> const&, unsigned long, int, unsigned long, float, unsigned long, unsigned long, float, float, float, float, unsigned long, unsigned long, int, pybind11::array_t<float, 17>&, pybind11::array_t<float, 17>&, pybind11::array_t<float, 17>&, pybind11::array_t<int, 16>&, pybind11::array_t<int, 16>&, pybind11::array_t<int, 16>&, pybind11::array_t<int, 16>&, float&)
00000000000d4020 T void _trace_param_rne<true, float, PyLinearOperator<float>, void _trace_param_f<true, float, PyLinearOperator<float> >(PyLinearOperator<float> const*, pybind11::array_t<float, 17> const&, unsigned long, int, unsigned long, float, unsigned long, unsigned long, float, float, float, float, unsigned long, unsigned long, int, pybind11::array_t<float, 17>&, pybind11::array_t<float, 17>&, pybind11::array_t<float, 17>&, pybind11::array_t<int, 16>&, pybind11::array_t<int, 16>&, pybind11::array_t<int, 16>&, pybind11::array_t<int, 16>&, float&, pybind11::kwargs const&)::'lambda'(float) const&>(PyLinearOperator<float> const*, void _trace_param_f<true, float, PyLinearOperator<float> >(PyLinearOperator<float> const*, pybind11::array_t<float, 17> const&, unsigned long, int, unsigned long, float, unsigned long, unsigned long, float, float, float, float, unsigned long, unsigned long, int, pybind11::array_t<float, 17>&, pybind11::array_t<float, 17>&, pybind11::array_t<float, 17>&, pybind11::array_t<int, 16>&, pybind11::array_t<int, 16>&, pybind11::array_t<int, 16>&, pybind11::array_t<int, 16>&, float&, pybind11::kwargs const&)::'lambda'(float) const&, pybind11::array_t<float, 17> const&, unsigned long, int, unsigned long, float, unsigned long, unsigned long, float, float, float, float, unsigned long, unsigned long, int, pybind11::array_t<float, 17>&, pybind11::array_t<float, 17>&, pybind11::array_t<float, 17>&, pybind11::array_t<int, 16>&, pybind11::array_t<int, 16>&, pybind11::array_t<int, 16>&, pybind11::array_t<int, 16>&, float&)
000000000009f320 T void _trace_param_rne<true, float, DenseEigenLinearOperator<float>, std::__1::identity const&>(DenseEigenLinearOperator<float> const*, std::__1::identity const&, pybind11::array_t<float, 17> const&, unsigned long, int, unsigned long, float, unsigned long, unsigned long, float, float, float, float, unsigned long, unsigned long, int, pybind11::array_t<float, 17>&, pybind11::array_t<float, 17>&, pybind11::array_t<float, 17>&, pybind11::array_t<int, 16>&, pybind11::array_t<int, 16>&, pybind11::array_t<int, 16>&, pybind11::array_t<int, 16>&, float&)
000000000009f980 T void _trace_param_rne<true, float, DenseEigenLinearOperator<float>, void _trace_param_f<true, float, DenseEigenLinearOperator<float> >(DenseEigenLinearOperator<float> const*, pybind11::array_t<float, 17> const&, unsigned long, int, unsigned long, float, unsigned long, unsigned long, float, float, float, float, unsigned long, unsigned long, int, pybind11::array_t<float, 17>&, pybind11::array_t<float, 17>&, pybind11::array_t<float, 17>&, pybind11::array_t<int, 16>&, pybind11::array_t<int, 16>&, pybind11::array_t<int, 16>&, pybind11::array_t<int, 16>&, float&, pybind11::kwargs const&)::'lambda0'(float) const&>(DenseEigenLinearOperator<float> const*, void _trace_param_f<true, float, DenseEigenLinearOperator<float> >(DenseEigenLinearOperator<float> const*, pybind11::array_t<float, 17> const&, unsigned long, int, unsigned long, float, unsigned long, unsigned long, float, float, float, float, unsigned long, unsigned long, int, pybind11::array_t<float, 17>&, pybind11::array_t<float, 17>&, pybind11::array_t<float, 17>&, pybind11::array_t<int, 16>&, pybind11::array_t<int, 16>&, pybind11::array_t<int, 16>&, pybind11::array_t<int, 16>&, float&, pybind11::kwargs const&)::'lambda0'(float) const&, pybind11::array_t<float, 17> const&, unsigned long, int, unsigned long, float, unsigned long, unsigned long, float, float, float, float, unsigned long, unsigned long, int, pybind11::array_t<float, 17>&, pybind11::array_t<float, 17>&, pybind11::array_t<float, 17>&, pybind11::array_t<int, 16>&, pybind11::array_t<int, 16>&, pybind11::array_t<int, 16>&, pybind11::array_t<int, 16>&, float&)
000000000009fcb0 T void _trace_param_rne<true, float, DenseEigenLinearOperator<float>, void _trace_param_f<true, float, DenseEigenLinearOperator<float> >(DenseEigenLinearOperator<float> const*, pybind11::array_t<float, 17> const&, unsigned long, int, unsigned long, float, unsigned long, unsigned long, float, float, float, float, unsigned long, unsigned long, int, pybind11::array_t<float, 17>&, pybind11::array_t<float, 17>&, pybind11::array_t<float, 17>&, pybind11::array_t<int, 16>&, pybind11::array_t<int, 16>&, pybind11::array_t<int, 16>&, pybind11::array_t<int, 16>&, float&, pybind11::kwargs const&)::'lambda1'(float) const&>(DenseEigenLinearOperator<float> const*, void _trace_param_f<true, float, DenseEigenLinearOperator<float> >(DenseEigenLinearOperator<float> const*, pybind11::array_t<float, 17> const&, unsigned long, int, unsigned long, float, unsigned long, unsigned long, float, float, float, float, unsigned long, unsigned long, int, pybind11::array_t<float, 17>&, pybind11::array_t<float, 17>&, pybind11::array_t<float, 17>&, pybind11::array_t<int, 16>&, pybind11::array_t<int, 16>&, pybind11::array_t<int, 16>&, pybind11::array_t<int, 16>&, float&, pybind11::kwargs const&)::'lambda1'(float) const&, pybind11::array_t<float, 17> const&, unsigned long, int, unsigned long, float, unsigned long, unsigned long, float, float, float, float, unsigned long, unsigned long, int, pybind11::array_t<float, 17>&, pybind11::array_t<float, 17>&, pybind11::array_t<float, 17>&, pybind11::array_t<int, 16>&, pybind11::array_t<int, 16>&, pybind11::array_t<int, 16>&, pybind11::array_t<int, 16>&, float&)
000000000009f650 T void _trace_param_rne<true, float, DenseEigenLinearOperator<float>, void _trace_param_f<true, float, DenseEigenLinearOperator<float> >(DenseEigenLinearOperator<float> const*, pybind11::array_t<float, 17> const&, unsigned long, int, unsigned long, float, unsigned long, unsigned long, float, float, float, float, unsigned long, unsigned long, int, pybind11::array_t<float, 17>&, pybind11::array_t<float, 17>&, pybind11::array_t<float, 17>&, pybind11::array_t<int, 16>&, pybind11::array_t<int, 16>&, pybind11::array_t<int, 16>&, pybind11::array_t<int, 16>&, float&, pybind11::kwargs const&)::'lambda'(float) const&>(DenseEigenLinearOperator<float> const*, void _trace_param_f<true, float, DenseEigenLinearOperator<float> >(DenseEigenLinearOperator<float> const*, pybind11::array_t<float, 17> const&, unsigned long, int, unsigned long, float, unsigned long, unsigned long, float, float, float, float, unsigned long, unsigned long, int, pybind11::array_t<float, 17>&, pybind11::array_t<float, 17>&, pybind11::array_t<float, 17>&, pybind11::array_t<int, 16>&, pybind11::array_t<int, 16>&, pybind11::array_t<int, 16>&, pybind11::array_t<int, 16>&, float&, pybind11::kwargs const&)::'lambda'(float) const&, pybind11::array_t<float, 17> const&, unsigned long, int, unsigned long, float, unsigned long, unsigned long, float, float, float, float, unsigned long, unsigned long, int, pybind11::array_t<float, 17>&, pybind11::array_t<float, 17>&, pybind11::array_t<float, 17>&, pybind11::array_t<int, 16>&, pybind11::array_t<int, 16>&, pybind11::array_t<int, 16>&, pybind11::array_t<int, 16>&, float&)
000000000006c7a0 T void _trace_param_rne<true, float, SparseEigenLinearOperator<float>, std::__1::identity const&>(SparseEigenLinearOperator<float> const*, std::__1::identity const&, pybind11::array_t<float, 17> const&, unsigned long, int, unsigned long, float, unsigned long, unsigned long, float, float, float, float, unsigned long, unsigned long, int, pybind11::array_t<float, 17>&, pybind11::array_t<float, 17>&, pybind11::array_t<float, 17>&, pybind11::array_t<int, 16>&, pybind11::array_t<int, 16>&, pybind11::array_t<int, 16>&, pybind11::array_t<int, 16>&, float&)
000000000006ce00 T void _trace_param_rne<true, float, SparseEigenLinearOperator<float>, void _trace_param_f<true, float, SparseEigenLinearOperator<float> >(SparseEigenLinearOperator<float> const*, pybind11::array_t<float, 17> const&, unsigned long, int, unsigned long, float, unsigned long, unsigned long, float, float, float, float, unsigned long, unsigned long, int, pybind11::array_t<float, 17>&, pybind11::array_t<float, 17>&, pybind11::array_t<float, 17>&, pybind11::array_t<int, 16>&, pybind11::array_t<int, 16>&, pybind11::array_t<int, 16>&, pybind11::array_t<int, 16>&, float&, pybind11::kwargs const&)::'lambda0'(float) const&>(SparseEigenLinearOperator<float> const*, void _trace_param_f<true, float, SparseEigenLinearOperator<float> >(SparseEigenLinearOperator<float> const*, pybind11::array_t<float, 17> const&, unsigned long, int, unsigned long, float, unsigned long, unsigned long, float, float, float, float, unsigned long, unsigned long, int, pybind11::array_t<float, 17>&, pybind11::array_t<float, 17>&, pybind11::array_t<float, 17>&, pybind11::array_t<int, 16>&, pybind11::array_t<int, 16>&, pybind11::array_t<int, 16>&, pybind11::array_t<int, 16>&, float&, pybind11::kwargs const&)::'lambda0'(float) const&, pybind11::array_t<float, 17> const&, unsigned long, int, unsigned long, float, unsigned long, unsigned long, float, float, float, float, unsigned long, unsigned long, int, pybind11::array_t<float, 17>&, pybind11::array_t<float, 17>&, pybind11::array_t<float, 17>&, pybind11::array_t<int, 16>&, pybind11::array_t<int, 16>&, pybind11::array_t<int, 16>&, pybind11::array_t<int, 16>&, float&)
000000000006d130 T void _trace_param_rne<true, float, SparseEigenLinearOperator<float>, void _trace_param_f<true, float, SparseEigenLinearOperator<float> >(SparseEigenLinearOperator<float> const*, pybind11::array_t<float, 17> const&, unsigned long, int, unsigned long, float, unsigned long, unsigned long, float, float, float, float, unsigned long, unsigned long, int, pybind11::array_t<float, 17>&, pybind11::array_t<float, 17>&, pybind11::array_t<float, 17>&, pybind11::array_t<int, 16>&, pybind11::array_t<int, 16>&, pybind11::array_t<int, 16>&, pybind11::array_t<int, 16>&, float&, pybind11::kwargs const&)::'lambda1'(float) const&>(SparseEigenLinearOperator<float> const*, void _trace_param_f<true, float, SparseEigenLinearOperator<float> >(SparseEigenLinearOperator<float> const*, pybind11::array_t<float, 17> const&, unsigned long, int, unsigned long, float, unsigned long, unsigned long, float, float, float, float, unsigned long, unsigned long, int, pybind11::array_t<float, 17>&, pybind11::array_t<float, 17>&, pybind11::array_t<float, 17>&, pybind11::array_t<int, 16>&, pybind11::array_t<int, 16>&, pybind11::array_t<int, 16>&, pybind11::array_t<int, 16>&, float&, pybind11::kwargs const&)::'lambda1'(float) const&, pybind11::array_t<float, 17> const&, unsigned long, int, unsigned long, float, unsigned long, unsigned long, float, float, float, float, unsigned long, unsigned long, int, pybind11::array_t<float, 17>&, pybind11::array_t<float, 17>&, pybind11::array_t<float, 17>&, pybind11::array_t<int, 16>&, pybind11::array_t<int, 16>&, pybind11::array_t<int, 16>&, pybind11::array_t<int, 16>&, float&)
000000000006cad0 T void _trace_param_rne<true, float, SparseEigenLinearOperator<float>, void _trace_param_f<true, float, SparseEigenLinearOperator<float> >(SparseEigenLinearOperator<float> const*, pybind11::array_t<float, 17> const&, unsigned long, int, unsigned long, float, unsigned long, unsigned long, float, float, float, float, unsigned long, unsigned long, int, pybind11::array_t<float, 17>&, pybind11::array_t<float, 17>&, pybind11::array_t<float, 17>&, pybind11::array_t<int, 16>&, pybind11::array_t<int, 16>&, pybind11::array_t<int, 16>&, pybind11::array_t<int, 16>&, float&, pybind11::kwargs const&)::'lambda'(float) const&>(SparseEigenLinearOperator<float> const*, void _trace_param_f<true, float, SparseEigenLinearOperator<float> >(SparseEigenLinearOperator<float> const*, pybind11::array_t<float, 17> const&, unsigned long, int, unsigned long, float, unsigned long, unsigned long, float, float, float, float, unsigned long, unsigned long, int, pybind11::array_t<float, 17>&, pybind11::array_t<float, 17>&, pybind11::array_t<float, 17>&, pybind11::array_t<int, 16>&, pybind11::array_t<int, 16>&, pybind11::array_t<int, 16>&, pybind11::array_t<int, 16>&, float&, pybind11::kwargs const&)::'lambda'(float) const&, pybind11::array_t<float, 17> const&, unsigned long, int, unsigned long, float, unsigned long, unsigned long, float, float, float, float, unsigned long, unsigned long, int, pybind11::array_t<float, 17>&, pybind11::array_t<float, 17>&, pybind11::array_t<float, 17>&, pybind11::array_t<int, 16>&, pybind11::array_t<int, 16>&, pybind11::array_t<int, 16>&, pybind11::array_t<int, 16>&, float&)
000000000001e570 T auto eigen_dense_wrapper<double>(Eigen::Matrix<double, -1, -1, 0, -1, -1> const*)
000000000001e550 T auto eigen_dense_wrapper<float>(Eigen::Matrix<float, -1, -1, 0, -1, -1> const*)
000000000001e500 T auto eigen_sparse_wrapper<double>(Eigen::SparseMatrix<double, 0, int> const*)
000000000001e4b0 T auto eigen_sparse_wrapper<float>(Eigen::SparseMatrix<float, 0, int> const*)
000000000001e5b0 T auto linearoperator_wrapper<double>(pybind11::object const*)
000000000001e590 T auto linearoperator_wrapper<float>(pybind11::object const*)
000000000004bed0 T void trace_estimator_slq_py<false, double, SparseEigenLinearOperator<double>, ThreadedRNG64<SplitMix64, std::__1::random_device>, std::__1::identity const&>(SparseEigenLinearOperator<double> const*, std::__1::identity const&, ThreadedRNG64<SplitMix64, std::__1::random_device>&, pybind11::array_t<double, 17> const&, unsigned long, int, unsigned long, double, unsigned long, unsigned long, double, double, double, double, unsigned long, unsigned long, int, pybind11::array_t<double, 17>&, pybind11::array_t<double, 17>&, pybind11::array_t<double, 17>&, pybind11::array_t<int, 16>&, pybind11::array_t<int, 16>&, pybind11::array_t<int, 16>&, pybind11::array_t<int, 16>&, double&)
000000000005ee40 T __Z22trace_estimator_slq_pyILb0Ed25SparseEigenLinearOperatorIdE13ThreadedRNG64I10SplitMix64NSt3__113random_deviceEERKZ14_trace_param_fILb0EdS1_EvPKT1_RKN8pybind117array_tIT0_Li17EEEmimSD_mmSD_SD_SD_SD_mmiRSE_SH_SH_RNSC_IiLi16EEESJ_SJ_SJ_RSD_RKNSB_6kwargsEEUldE0_EvSA_OT3_RT2_SG_mimSD_mmSD_SD_SD_SD_mmiSH_SH_SH_SJ_SJ_SJ_SJ_SK_
0000000000065790 T __Z22trace_estimator_slq_pyILb0Ed25SparseEigenLinearOperatorIdE13ThreadedRNG64I10SplitMix64NSt3__113random_deviceEERKZ14_trace_param_fILb0EdS1_EvPKT1_RKN8pybind117array_tIT0_Li17EEEmimSD_mmSD_SD_SD_SD_mmiRSE_SH_SH_RNSC_IiLi16EEESJ_SJ_SJ_RSD_RKNSB_6kwargsEEUldE1_EvSA_OT3_RT2_SG_mimSD_mmSD_SD_SD_SD_mmiSH_SH_SH_SJ_SJ_SJ_SJ_SK_
0000000000058ae0 T __Z22trace_estimator_slq_pyILb0Ed25SparseEigenLinearOperatorIdE13ThreadedRNG64I10SplitMix64NSt3__113random_deviceEERKZ14_trace_param_fILb0EdS1_EvPKT1_RKN8pybind117array_tIT0_Li17EEEmimSD_mmSD_SD_SD_SD_mmiRSE_SH_SH_RNSC_IiLi16EEESJ_SJ_SJ_RSD_RKNSB_6kwargsEEUldE_EvSA_OT3_RT2_SG_mimSD_mmSD_SD_SD_SD_mmiSH_SH_SH_SJ_SJ_SJ_SJ_SK_
000000000004c6e0 T void trace_estimator_slq_py<false, double, SparseEigenLinearOperator<double>, ThreadedRNG64<Xoshiro256StarStar, std::__1::random_device>, std::__1::identity const&>(SparseEigenLinearOperator<double> const*, std::__1::identity const&, ThreadedRNG64<Xoshiro256StarStar, std::__1::random_device>&, pybind11::array_t<double, 17> const&, unsigned long, int, unsigned long, double, unsigned long, unsigned long, double, double, double, double, unsigned long, unsigned long, int, pybind11::array_t<double, 17>&, pybind11::array_t<double, 17>&, pybind11::array_t<double, 17>&, pybind11::array_t<int, 16>&, pybind11::array_t<int, 16>&, pybind11::array_t<int, 16>&, pybind11::array_t<int, 16>&, double&)
000000000005f650 T __Z22trace_estimator_slq_pyILb0Ed25SparseEigenLinearOperatorIdE13ThreadedRNG64I18Xoshiro256StarStarNSt3__113random_deviceEERKZ14_trace_param_fILb0EdS1_EvPKT1_RKN8pybind117array_tIT0_Li17EEEmimSD_mmSD_SD_SD_SD_mmiRSE_SH_SH_RNSC_IiLi16EEESJ_SJ_SJ_RSD_RKNSB_6kwargsEEUldE0_EvSA_OT3_RT2_SG_mimSD_mmSD_SD_SD_SD_mmiSH_SH_SH_SJ_SJ_SJ_SJ_SK_
0000000000065fa0 T __Z22trace_estimator_slq_pyILb0Ed25SparseEigenLinearOperatorIdE13ThreadedRNG64I18Xoshiro256StarStarNSt3__113random_deviceEERKZ14_trace_param_fILb0EdS1_EvPKT1_RKN8pybind117array_tIT0_Li17EEEmimSD_mmSD_SD_SD_SD_mmiRSE_SH_SH_RNSC_IiLi16EEESJ_SJ_SJ_RSD_RKNSB_6kwargsEEUldE1_EvSA_OT3_RT2_SG_mimSD_mmSD_SD_SD_SD_mmiSH_SH_SH_SJ_SJ_SJ_SJ_SK_
00000000000592f0 T __Z22trace_estimator_slq_pyILb0Ed25SparseEigenLinearOperatorIdE13ThreadedRNG64I18Xoshiro256StarStarNSt3__113random_deviceEERKZ14_trace_param_fILb0EdS1_EvPKT1_RKN8pybind117array_tIT0_Li17EEEmimSD_mmSD_SD_SD_SD_mmiRSE_SH_SH_RNSC_IiLi16EEESJ_SJ_SJ_RSD_RKNSB_6kwargsEEUldE_EvSA_OT3_RT2_SG_mimSD_mmSD_SD_SD_SD_mmiSH_SH_SH_SJ_SJ_SJ_SJ_SK_
000000000004d700 T void trace_estimator_slq_py<false, double, SparseEigenLinearOperator<double>, ThreadedRNG64<pcg_detail::engine<unsigned long long, unsigned __int128, pcg_detail::xsl_rr_mixin<unsigned long long, unsigned __int128>, false, pcg_detail::specific_stream<unsigned __int128>, pcg_detail::default_multiplier<unsigned __int128> >, std::__1::random_device>, std::__1::identity const&>(SparseEigenLinearOperator<double> const*, std::__1::identity const&, ThreadedRNG64<pcg_detail::engine<unsigned long long, unsigned __int128, pcg_detail::xsl_rr_mixin<unsigned long long, unsigned __int128>, false, pcg_detail::specific_stream<unsigned __int128>, pcg_detail::default_multiplier<unsigned __int128> >, std::__1::random_device>&, pybind11::array_t<double, 17> const&, unsigned long, int, unsigned long, double, unsigned long, unsigned long, double, double, double, double, unsigned long, unsigned long, int, pybind11::array_t<double, 17>&, pybind11::array_t<double, 17>&, pybind11::array_t<double, 17>&, pybind11::array_t<int, 16>&, pybind11::array_t<int, 16>&, pybind11::array_t<int, 16>&, pybind11::array_t<int, 16>&, double&)
0000000000060670 T __Z22trace_estimator_slq_pyILb0Ed25SparseEigenLinearOperatorIdE13ThreadedRNG64IN10pcg_detail6engineIyoNS3_12xsl_rr_mixinIyoEELb0ENS3_15specific_streamIoEENS3_18default_multiplierIoEEEENSt3__113random_deviceEERKZ14_trace_param_fILb0EdS1_EvPKT1_RKN8pybind117array_tIT0_Li17EEEmimSL_mmSL_SL_SL_SL_mmiRSM_SP_SP_RNSK_IiLi16EEESR_SR_SR_RSL_RKNSJ_6kwargsEEUldE0_EvSI_OT3_RT2_SO_mimSL_mmSL_SL_SL_SL_mmiSP_SP_SP_SR_SR_SR_SR_SS_
0000000000066fc0 T __Z22trace_estimator_slq_pyILb0Ed25SparseEigenLinearOperatorIdE13ThreadedRNG64IN10pcg_detail6engineIyoNS3_12xsl_rr_mixinIyoEELb0ENS3_15specific_streamIoEENS3_18default_multiplierIoEEEENSt3__113random_deviceEERKZ14_trace_param_fILb0EdS1_EvPKT1_RKN8pybind117array_tIT0_Li17EEEmimSL_mmSL_SL_SL_SL_mmiRSM_SP_SP_RNSK_IiLi16EEESR_SR_SR_RSL_RKNSJ_6kwargsEEUldE1_EvSI_OT3_RT2_SO_mimSL_mmSL_SL_SL_SL_mmiSP_SP_SP_SR_SR_SR_SR_SS_
000000000005a310 T __Z22trace_estimator_slq_pyILb0Ed25SparseEigenLinearOperatorIdE13ThreadedRNG64IN10pcg_detail6engineIyoNS3_12xsl_rr_mixinIyoEELb0ENS3_15specific_streamIoEENS3_18default_multiplierIoEEEENSt3__113random_deviceEERKZ14_trace_param_fILb0EdS1_EvPKT1_RKN8pybind117array_tIT0_Li17EEEmimSL_mmSL_SL_SL_SL_mmiRSM_SP_SP_RNSK_IiLi16EEESR_SR_SR_RSL_RKNSJ_6kwargsEEUldE_EvSI_OT3_RT2_SO_mimSL_mmSL_SL_SL_SL_mmiSP_SP_SP_SR_SR_SR_SR_SS_
000000000004df10 T void trace_estimator_slq_py<false, double, SparseEigenLinearOperator<double>, ThreadedRNG64<std::__1::mersenne_twister_engine<unsigned long long, 64ul, 312ul, 156ul, 31ul, 13043109905998158313ull, 29ul, 6148914691236517205ull, 17ul, 8202884508482404352ull, 37ul, 18444473444759240704ull, 43ul, 6364136223846793005ull>, std::__1::random_device>, std::__1::identity const&>(SparseEigenLinearOperator<double> const*, std::__1::identity const&, ThreadedRNG64<std::__1::mersenne_twister_engine<unsigned long long, 64ul, 312ul, 156ul, 31ul, 13043109905998158313ull, 29ul, 6148914691236517205ull, 17ul, 8202884508482404352ull, 37ul, 18444473444759240704ull, 43ul, 6364136223846793005ull>, std::__1::random_device>&, pybind11::array_t<double, 17> const&, unsigned long, int, unsigned long, double, unsigned long, unsigned long, double, double, double, double, unsigned long, unsigned long, int, pybind11::array_t<double, 17>&, pybind11::array_t<double, 17>&, pybind11::array_t<double, 17>&, pybind11::array_t<int, 16>&, pybind11::array_t<int, 16>&, pybind11::array_t<int, 16>&, pybind11::array_t<int, 16>&, double&)
0000000000060e80 T __Z22trace_estimator_slq_pyILb0Ed25SparseEigenLinearOperatorIdE13ThreadedRNG64INSt3__123mersenne_twister_engineIyLm64ELm312ELm156ELm31ELy13043109905998158313ELm29ELy6148914691236517205ELm17ELy8202884508482404352ELm37ELy18444473444759240704ELm43ELy6364136223846793005EEENS3_13random_deviceEERKZ14_trace_param_fILb0EdS1_EvPKT1_RKN8pybind117array_tIT0_Li17EEEmimSE_mmSE_SE_SE_SE_mmiRSF_SI_SI_RNSD_IiLi16EEESK_SK_SK_RSE_RKNSC_6kwargsEEUldE0_EvSB_OT3_RT2_SH_mimSE_mmSE_SE_SE_SE_mmiSI_SI_SI_SK_SK_SK_SK_SL_
00000000000677d0 T __Z22trace_estimator_slq_pyILb0Ed25SparseEigenLinearOperatorIdE13ThreadedRNG64INSt3__123mersenne_twister_engineIyLm64ELm312ELm156ELm31ELy13043109905998158313ELm29ELy6148914691236517205ELm17ELy8202884508482404352ELm37ELy18444473444759240704ELm43ELy6364136223846793005EEENS3_13random_deviceEERKZ14_trace_param_fILb0EdS1_EvPKT1_RKN8pybind117array_tIT0_Li17EEEmimSE_mmSE_SE_SE_SE_mmiRSF_SI_SI_RNSD_IiLi16EEESK_SK_SK_RSE_RKNSC_6kwargsEEUldE1_EvSB_OT3_RT2_SH_mimSE_mmSE_SE_SE_SE_mmiSI_SI_SI_SK_SK_SK_SK_SL_
000000000005ab20 T __Z22trace_estimator_slq_pyILb0Ed25SparseEigenLinearOperatorIdE13ThreadedRNG64INSt3__123mersenne_twister_engineIyLm64ELm312ELm156ELm31ELy13043109905998158313ELm29ELy6148914691236517205ELm17ELy8202884508482404352ELm37ELy18444473444759240704ELm43ELy6364136223846793005EEENS3_13random_deviceEERKZ14_trace_param_fILb0EdS1_EvPKT1_RKN8pybind117array_tIT0_Li17EEEmimSE_mmSE_SE_SE_SE_mmiRSF_SI_SI_RNSD_IiLi16EEESK_SK_SK_RSE_RKNSC_6kwargsEEUldE_EvSB_OT3_RT2_SH_mimSE_mmSE_SE_SE_SE_mmiSI_SI_SI_SK_SK_SK_SK_SL_
000000000004cef0 T void trace_estimator_slq_py<false, double, SparseEigenLinearOperator<double>, ThreadedRNG64<std::__1::linear_congruential_engine<unsigned long long, 6364136223846793005ull, 1442695040888963407ull, 0ull>, std::__1::random_device>, std::__1::identity const&>(SparseEigenLinearOperator<double> const*, std::__1::identity const&, ThreadedRNG64<std::__1::linear_congruential_engine<unsigned long long, 6364136223846793005ull, 1442695040888963407ull, 0ull>, std::__1::random_device>&, pybind11::array_t<double, 17> const&, unsigned long, int, unsigned long, double, unsigned long, unsigned long, double, double, double, double, unsigned long, unsigned long, int, pybind11::array_t<double, 17>&, pybind11::array_t<double, 17>&, pybind11::array_t<double, 17>&, pybind11::array_t<int, 16>&, pybind11::array_t<int, 16>&, pybind11::array_t<int, 16>&, pybind11::array_t<int, 16>&, double&)
000000000005fe60 T __Z22trace_estimator_slq_pyILb0Ed25SparseEigenLinearOperatorIdE13ThreadedRNG64INSt3__126linear_congruential_engineIyLy6364136223846793005ELy1442695040888963407ELy0EEENS3_13random_deviceEERKZ14_trace_param_fILb0EdS1_EvPKT1_RKN8pybind117array_tIT0_Li17EEEmimSE_mmSE_SE_SE_SE_mmiRSF_SI_SI_RNSD_IiLi16EEESK_SK_SK_RSE_RKNSC_6kwargsEEUldE0_EvSB_OT3_RT2_SH_mimSE_mmSE_SE_SE_SE_mmiSI_SI_SI_SK_SK_SK_SK_SL_
00000000000667b0 T __Z22trace_estimator_slq_pyILb0Ed25SparseEigenLinearOperatorIdE13ThreadedRNG64INSt3__126linear_congruential_engineIyLy6364136223846793005ELy1442695040888963407ELy0EEENS3_13random_deviceEERKZ14_trace_param_fILb0EdS1_EvPKT1_RKN8pybind117array_tIT0_Li17EEEmimSE_mmSE_SE_SE_SE_mmiRSF_SI_SI_RNSD_IiLi16EEESK_SK_SK_RSE_RKNSC_6kwargsEEUldE1_EvSB_OT3_RT2_SH_mimSE_mmSE_SE_SE_SE_mmiSI_SI_SI_SK_SK_SK_SK_SL_
0000000000059b00 T __Z22trace_estimator_slq_pyILb0Ed25SparseEigenLinearOperatorIdE13ThreadedRNG64INSt3__126linear_congruential_engineIyLy6364136223846793005ELy1442695040888963407ELy0EEENS3_13random_deviceEERKZ14_trace_param_fILb0EdS1_EvPKT1_RKN8pybind117array_tIT0_Li17EEEmimSE_mmSE_SE_SE_SE_mmiRSF_SI_SI_RNSD_IiLi16EEESK_SK_SK_RSE_RKNSC_6kwargsEEUldE_EvSB_OT3_RT2_SH_mimSE_mmSE_SE_SE_SE_mmiSI_SI_SI_SK_SK_SK_SK_SL_
0000000000025d20 T void trace_estimator_slq_py<false, float, SparseEigenLinearOperator<float>, ThreadedRNG64<SplitMix64, std::__1::random_device>, std::__1::identity const&>(SparseEigenLinearOperator<float> const*, std::__1::identity const&, ThreadedRNG64<SplitMix64, std::__1::random_device>&, pybind11::array_t<float, 17> const&, unsigned long, int, unsigned long, float, unsigned long, unsigned long, float, float, float, float, unsigned long, unsigned long, int, pybind11::array_t<float, 17>&, pybind11::array_t<float, 17>&, pybind11::array_t<float, 17>&, pybind11::array_t<int, 16>&, pybind11::array_t<int, 16>&, pybind11::array_t<int, 16>&, pybind11::array_t<int, 16>&, float&)
000000000003abc0 T __Z22trace_estimator_slq_pyILb0Ef25SparseEigenLinearOperatorIfE13ThreadedRNG64I10SplitMix64NSt3__113random_deviceEERKZ14_trace_param_fILb0EfS1_EvPKT1_RKN8pybind117array_tIT0_Li17EEEmimSD_mmSD_SD_SD_SD_mmiRSE_SH_SH_RNSC_IiLi16EEESJ_SJ_SJ_RSD_RKNSB_6kwargsEEUlfE0_EvSA_OT3_RT2_SG_mimSD_mmSD_SD_SD_SD_mmiSH_SH_SH_SJ_SJ_SJ_SJ_SK_
00000000000412e0 T __Z22trace_estimator_slq_pyILb0Ef25SparseEigenLinearOperatorIfE13ThreadedRNG64I10SplitMix64NSt3__113random_deviceEERKZ14_trace_param_fILb0EfS1_EvPKT1_RKN8pybind117array_tIT0_Li17EEEmimSD_mmSD_SD_SD_SD_mmiRSE_SH_SH_RNSC_IiLi16EEESJ_SJ_SJ_RSD_RKNSB_6kwargsEEUlfE1_EvSA_OT3_RT2_SG_mimSD_mmSD_SD_SD_SD_mmiSH_SH_SH_SJ_SJ_SJ_SJ_SK_
00000000000349a0 T __Z22trace_estimator_slq_pyILb0Ef25SparseEigenLinearOperatorIfE13ThreadedRNG64I10SplitMix64NSt3__113random_deviceEERKZ14_trace_param_fILb0EfS1_EvPKT1_RKN8pybind117array_tIT0_Li17EEEmimSD_mmSD_SD_SD_SD_mmiRSE_SH_SH_RNSC_IiLi16EEESJ_SJ_SJ_RSD_RKNSB_6kwargsEEUlfE_EvSA_OT3_RT2_SG_mimSD_mmSD_SD_SD_SD_mmiSH_SH_SH_SJ_SJ_SJ_SJ_SK_
0000000000026530 T void trace_estimator_slq_py<false, float, SparseEigenLinearOperator<float>, ThreadedRNG64<Xoshiro256StarStar, std::__1::random_device>, std::__1::identity const&>(SparseEigenLinearOperator<float> const*, std::__1::identity const&, ThreadedRNG64<Xoshiro256StarStar, std::__1::random_device>&, pybind11::array_t<float, 17> const&, unsigned long, int, unsigned long, float, unsigned long, unsigned long, float, float, float, float, unsigned long, unsigned long, int, pybind11::array_t<float, 17>&, pybind11::array_t<float, 17>&, pybind11::array_t<float, 17>&, pybind11::array_t<int, 16>&, pybind11::array_t<int, 16>&, pybind11::array_t<int, 16>&, pybind11::array_t<int, 16>&, float&)
000000000003b3d0 T __Z22trace_estimator_slq_pyILb0Ef25SparseEigenLinearOperatorIfE13ThreadedRNG64I18Xoshiro256StarStarNSt3__113random_deviceEERKZ14_trace_param_fILb0EfS1_EvPKT1_RKN8pybind117array_tIT0_Li17EEEmimSD_mmSD_SD_SD_SD_mmiRSE_SH_SH_RNSC_IiLi16EEESJ_SJ_SJ_RSD_RKNSB_6kwargsEEUlfE0_EvSA_OT3_RT2_SG_mimSD_mmSD_SD_SD_SD_mmiSH_SH_SH_SJ_SJ_SJ_SJ_SK_
0000000000041af0 T __Z22trace_estimator_slq_pyILb0Ef25SparseEigenLinearOperatorIfE13ThreadedRNG64I18Xoshiro256StarStarNSt3__113random_deviceEERKZ14_trace_param_fILb0EfS1_EvPKT1_RKN8pybind117array_tIT0_Li17EEEmimSD_mmSD_SD_SD_SD_mmiRSE_SH_SH_RNSC_IiLi16EEESJ_SJ_SJ_RSD_RKNSB_6kwargsEEUlfE1_EvSA_OT3_RT2_SG_mimSD_mmSD_SD_SD_SD_mmiSH_SH_SH_SJ_SJ_SJ_SJ_SK_
00000000000351b0 T __Z22trace_estimator_slq_pyILb0Ef25SparseEigenLinearOperatorIfE13ThreadedRNG64I18Xoshiro256StarStarNSt3__113random_deviceEERKZ14_trace_param_fILb0EfS1_EvPKT1_RKN8pybind117array_tIT0_Li17EEEmimSD_mmSD_SD_SD_SD_mmiRSE_SH_SH_RNSC_IiLi16EEESJ_SJ_SJ_RSD_RKNSB_6kwargsEEUlfE_EvSA_OT3_RT2_SG_mimSD_mmSD_SD_SD_SD_mmiSH_SH_SH_SJ_SJ_SJ_SJ_SK_
0000000000027550 T void trace_estimator_slq_py<false, float, SparseEigenLinearOperator<float>, ThreadedRNG64<pcg_detail::engine<unsigned long long, unsigned __int128, pcg_detail::xsl_rr_mixin<unsigned long long, unsigned __int128>, false, pcg_detail::specific_stream<unsigned __int128>, pcg_detail::default_multiplier<unsigned __int128> >, std::__1::random_device>, std::__1::identity const&>(SparseEigenLinearOperator<float> const*, std::__1::identity const&, ThreadedRNG64<pcg_detail::engine<unsigned long long, unsigned __int128, pcg_detail::xsl_rr_mixin<unsigned long long, unsigned __int128>, false, pcg_detail::specific_stream<unsigned __int128>, pcg_detail::default_multiplier<unsigned __int128> >, std::__1::random_device>&, pybind11::array_t<float, 17> const&, unsigned long, int, unsigned long, float, unsigned long, unsigned long, float, float, float, float, unsigned long, unsigned long, int, pybind11::array_t<float, 17>&, pybind11::array_t<float, 17>&, pybind11::array_t<float, 17>&, pybind11::array_t<int, 16>&, pybind11::array_t<int, 16>&, pybind11::array_t<int, 16>&, pybind11::array_t<int, 16>&, float&)
000000000003c3f0 T __Z22trace_estimator_slq_pyILb0Ef25SparseEigenLinearOperatorIfE13ThreadedRNG64IN10pcg_detail6engineIyoNS3_12xsl_rr_mixinIyoEELb0ENS3_15specific_streamIoEENS3_18default_multiplierIoEEEENSt3__113random_deviceEERKZ14_trace_param_fILb0EfS1_EvPKT1_RKN8pybind117array_tIT0_Li17EEEmimSL_mmSL_SL_SL_SL_mmiRSM_SP_SP_RNSK_IiLi16EEESR_SR_SR_RSL_RKNSJ_6kwargsEEUlfE0_EvSI_OT3_RT2_SO_mimSL_mmSL_SL_SL_SL_mmiSP_SP_SP_SR_SR_SR_SR_SS_
0000000000042b10 T __Z22trace_estimator_slq_pyILb0Ef25SparseEigenLinearOperatorIfE13ThreadedRNG64IN10pcg_detail6engineIyoNS3_12xsl_rr_mixinIyoEELb0ENS3_15specific_streamIoEENS3_18default_multiplierIoEEEENSt3__113random_deviceEERKZ14_trace_param_fILb0EfS1_EvPKT1_RKN8pybind117array_tIT0_Li17EEEmimSL_mmSL_SL_SL_SL_mmiRSM_SP_SP_RNSK_IiLi16EEESR_SR_SR_RSL_RKNSJ_6kwargsEEUlfE1_EvSI_OT3_RT2_SO_mimSL_mmSL_SL_SL_SL_mmiSP_SP_SP_SR_SR_SR_SR_SS_
00000000000361d0 T __Z22trace_estimator_slq_pyILb0Ef25SparseEigenLinearOperatorIfE13ThreadedRNG64IN10pcg_detail6engineIyoNS3_12xsl_rr_mixinIyoEELb0ENS3_15specific_streamIoEENS3_18default_multiplierIoEEEENSt3__113random_deviceEERKZ14_trace_param_fILb0EfS1_EvPKT1_RKN8pybind117array_tIT0_Li17EEEmimSL_mmSL_SL_SL_SL_mmiRSM_SP_SP_RNSK_IiLi16EEESR_SR_SR_RSL_RKNSJ_6kwargsEEUlfE_EvSI_OT3_RT2_SO_mimSL_mmSL_SL_SL_SL_mmiSP_SP_SP_SR_SR_SR_SR_SS_
0000000000027d60 T void trace_estimator_slq_py<false, float, SparseEigenLinearOperator<float>, ThreadedRNG64<std::__1::mersenne_twister_engine<unsigned long long, 64ul, 312ul, 156ul, 31ul, 13043109905998158313ull, 29ul, 6148914691236517205ull, 17ul, 8202884508482404352ull, 37ul, 18444473444759240704ull, 43ul, 6364136223846793005ull>, std::__1::random_device>, std::__1::identity const&>(SparseEigenLinearOperator<float> const*, std::__1::identity const&, ThreadedRNG64<std::__1::mersenne_twister_engine<unsigned long long, 64ul, 312ul, 156ul, 31ul, 13043109905998158313ull, 29ul, 6148914691236517205ull, 17ul, 8202884508482404352ull, 37ul, 18444473444759240704ull, 43ul, 6364136223846793005ull>, std::__1::random_device>&, pybind11::array_t<float, 17> const&, unsigned long, int, unsigned long, float, unsigned long, unsigned long, float, float, float, float, unsigned long, unsigned long, int, pybind11::array_t<float, 17>&, pybind11::array_t<float, 17>&, pybind11::array_t<float, 17>&, pybind11::array_t<int, 16>&, pybind11::array_t<int, 16>&, pybind11::array_t<int, 16>&, pybind11::array_t<int, 16>&, float&)
000000000003cc00 T __Z22trace_estimator_slq_pyILb0Ef25SparseEigenLinearOperatorIfE13ThreadedRNG64INSt3__123mersenne_twister_engineIyLm64ELm312ELm156ELm31ELy13043109905998158313ELm29ELy6148914691236517205ELm17ELy8202884508482404352ELm37ELy18444473444759240704ELm43ELy6364136223846793005EEENS3_13random_deviceEERKZ14_trace_param_fILb0EfS1_EvPKT1_RKN8pybind117array_tIT0_Li17EEEmimSE_mmSE_SE_SE_SE_mmiRSF_SI_SI_RNSD_IiLi16EEESK_SK_SK_RSE_RKNSC_6kwargsEEUlfE0_EvSB_OT3_RT2_SH_mimSE_mmSE_SE_SE_SE_mmiSI_SI_SI_SK_SK_SK_SK_SL_
0000000000043320 T __Z22trace_estimator_slq_pyILb0Ef25SparseEigenLinearOperatorIfE13ThreadedRNG64INSt3__123mersenne_twister_engineIyLm64ELm312ELm156ELm31ELy13043109905998158313ELm29ELy6148914691236517205ELm17ELy8202884508482404352ELm37ELy18444473444759240704ELm43ELy6364136223846793005EEENS3_13random_deviceEERKZ14_trace_param_fILb0EfS1_EvPKT1_RKN8pybind117array_tIT0_Li17EEEmimSE_mmSE_SE_SE_SE_mmiRSF_SI_SI_RNSD_IiLi16EEESK_SK_SK_RSE_RKNSC_6kwargsEEUlfE1_EvSB_OT3_RT2_SH_mimSE_mmSE_SE_SE_SE_mmiSI_SI_SI_SK_SK_SK_SK_SL_
00000000000369e0 T __Z22trace_estimator_slq_pyILb0Ef25SparseEigenLinearOperatorIfE13ThreadedRNG64INSt3__123mersenne_twister_engineIyLm64ELm312ELm156ELm31ELy13043109905998158313ELm29ELy6148914691236517205ELm17ELy8202884508482404352ELm37ELy18444473444759240704ELm43ELy6364136223846793005EEENS3_13random_deviceEERKZ14_trace_param_fILb0EfS1_EvPKT1_RKN8pybind117array_tIT0_Li17EEEmimSE_mmSE_SE_SE_SE_mmiRSF_SI_SI_RNSD_IiLi16EEESK_SK_SK_RSE_RKNSC_6kwargsEEUlfE_EvSB_OT3_RT2_SH_mimSE_mmSE_SE_SE_SE_mmiSI_SI_SI_SK_SK_SK_SK_SL_
0000000000026d40 T void trace_estimator_slq_py<false, float, SparseEigenLinearOperator<float>, ThreadedRNG64<std::__1::linear_congruential_engine<unsigned long long, 6364136223846793005ull, 1442695040888963407ull, 0ull>, std::__1::random_device>, std::__1::identity const&>(SparseEigenLinearOperator<float> const*, std::__1::identity const&, ThreadedRNG64<std::__1::linear_congruential_engine<unsigned long long, 6364136223846793005ull, 1442695040888963407ull, 0ull>, std::__1::random_device>&, pybind11::array_t<float, 17> const&, unsigned long, int, unsigned long, float, unsigned long, unsigned long, float, float, float, float, unsigned long, unsigned long, int, pybind11::array_t<float, 17>&, pybind11::array_t<float, 17>&, pybind11::array_t<float, 17>&, pybind11::array_t<int, 16>&, pybind11::array_t<int, 16>&, pybind11::array_t<int, 16>&, pybind11::array_t<int, 16>&, float&)
000000000003bbe0 T __Z22trace_estimator_slq_pyILb0Ef25SparseEigenLinearOperatorIfE13ThreadedRNG64INSt3__126linear_congruential_engineIyLy6364136223846793005ELy1442695040888963407ELy0EEENS3_13random_deviceEERKZ14_trace_param_fILb0EfS1_EvPKT1_RKN8pybind117array_tIT0_Li17EEEmimSE_mmSE_SE_SE_SE_mmiRSF_SI_SI_RNSD_IiLi16EEESK_SK_SK_RSE_RKNSC_6kwargsEEUlfE0_EvSB_OT3_RT2_SH_mimSE_mmSE_SE_SE_SE_mmiSI_SI_SI_SK_SK_SK_SK_SL_
0000000000042300 T __Z22trace_estimator_slq_pyILb0Ef25SparseEigenLinearOperatorIfE13ThreadedRNG64INSt3__126linear_congruential_engineIyLy6364136223846793005ELy1442695040888963407ELy0EEENS3_13random_deviceEERKZ14_trace_param_fILb0EfS1_EvPKT1_RKN8pybind117array_tIT0_Li17EEEmimSE_mmSE_SE_SE_SE_mmiRSF_SI_SI_RNSD_IiLi16EEESK_SK_SK_RSE_RKNSC_6kwargsEEUlfE1_EvSB_OT3_RT2_SH_mimSE_mmSE_SE_SE_SE_mmiSI_SI_SI_SK_SK_SK_SK_SL_
00000000000359c0 T __Z22trace_estimator_slq_pyILb0Ef25SparseEigenLinearOperatorIfE13ThreadedRNG64INSt3__126linear_congruential_engineIyLy6364136223846793005ELy1442695040888963407ELy0EEENS3_13random_deviceEERKZ14_trace_param_fILb0EfS1_EvPKT1_RKN8pybind117array_tIT0_Li17EEEmimSE_mmSE_SE_SE_SE_mmiRSF_SI_SI_RNSD_IiLi16EEESK_SK_SK_RSE_RKNSC_6kwargsEEUlfE_EvSB_OT3_RT2_SH_mimSE_mmSE_SE_SE_SE_mmiSI_SI_SI_SK_SK_SK_SK_SL_
00000000000ee9e0 T void trace_estimator_slq_py<true, double, PyLinearOperator<double>, ThreadedRNG64<SplitMix64, std::__1::random_device>, std::__1::identity const&>(PyLinearOperator<double> const*, std::__1::identity const&, ThreadedRNG64<SplitMix64, std::__1::random_device>&, pybind11::array_t<double, 17> const&, unsigned long, int, unsigned long, double, unsigned long, unsigned long, double, double, double, double, unsigned long, unsigned long, int, pybind11::array_t<double, 17>&, pybind11::array_t<double, 17>&, pybind11::array_t<double, 17>&, pybind11::array_t<int, 16>&, pybind11::array_t<int, 16>&, pybind11::array_t<int, 16>&, pybind11::array_t<int, 16>&, double&)
00000000000fadd0 T __Z22trace_estimator_slq_pyILb1Ed16PyLinearOperatorIdE13ThreadedRNG64I10SplitMix64NSt3__113random_deviceEERKZ14_trace_param_fILb1EdS1_EvPKT1_RKN8pybind117array_tIT0_Li17EEEmimSD_mmSD_SD_SD_SD_mmiRSE_SH_SH_RNSC_IiLi16EEESJ_SJ_SJ_RSD_RKNSB_6kwargsEEUldE0_EvSA_OT3_RT2_SG_mimSD_mmSD_SD_SD_SD_mmiSH_SH_SH_SJ_SJ_SJ_SJ_SK_
0000000000100c30 T __Z22trace_estimator_slq_pyILb1Ed16PyLinearOperatorIdE13ThreadedRNG64I10SplitMix64NSt3__113random_deviceEERKZ14_trace_param_fILb1EdS1_EvPKT1_RKN8pybind117array_tIT0_Li17EEEmimSD_mmSD_SD_SD_SD_mmiRSE_SH_SH_RNSC_IiLi16EEESJ_SJ_SJ_RSD_RKNSB_6kwargsEEUldE1_EvSA_OT3_RT2_SG_mimSD_mmSD_SD_SD_SD_mmiSH_SH_SH_SJ_SJ_SJ_SJ_SK_
00000000000f54c0 T __Z22trace_estimator_slq_pyILb1Ed16PyLinearOperatorIdE13ThreadedRNG64I10SplitMix64NSt3__113random_deviceEERKZ14_trace_param_fILb1EdS1_EvPKT1_RKN8pybind117array_tIT0_Li17EEEmimSD_mmSD_SD_SD_SD_mmiRSE_SH_SH_RNSC_IiLi16EEESJ_SJ_SJ_RSD_RKNSB_6kwargsEEUldE_EvSA_OT3_RT2_SG_mimSD_mmSD_SD_SD_SD_mmiSH_SH_SH_SJ_SJ_SJ_SJ_SK_
00000000000ef1f0 T void trace_estimator_slq_py<true, double, PyLinearOperator<double>, ThreadedRNG64<Xoshiro256StarStar, std::__1::random_device>, std::__1::identity const&>(PyLinearOperator<double> const*, std::__1::identity const&, ThreadedRNG64<Xoshiro256StarStar, std::__1::random_device>&, pybind11::array_t<double, 17> const&, unsigned long, int, unsigned long, double, unsigned long, unsigned long, double, double, double, double, unsigned long, unsigned long, int, pybind11::array_t<double, 17>&, pybind11::array_t<double, 17>&, pybind11::array_t<double, 17>&, pybind11::array_t<int, 16>&, pybind11::array_t<int, 16>&, pybind11::array_t<int, 16>&, pybind11::array_t<int, 16>&, double&)
00000000000fb5e0 T __Z22trace_estimator_slq_pyILb1Ed16PyLinearOperatorIdE13ThreadedRNG64I18Xoshiro256StarStarNSt3__113random_deviceEERKZ14_trace_param_fILb1EdS1_EvPKT1_RKN8pybind117array_tIT0_Li17EEEmimSD_mmSD_SD_SD_SD_mmiRSE_SH_SH_RNSC_IiLi16EEESJ_SJ_SJ_RSD_RKNSB_6kwargsEEUldE0_EvSA_OT3_RT2_SG_mimSD_mmSD_SD_SD_SD_mmiSH_SH_SH_SJ_SJ_SJ_SJ_SK_
0000000000101440 T __Z22trace_estimator_slq_pyILb1Ed16PyLinearOperatorIdE13ThreadedRNG64I18Xoshiro256StarStarNSt3__113random_deviceEERKZ14_trace_param_fILb1EdS1_EvPKT1_RKN8pybind117array_tIT0_Li17EEEmimSD_mmSD_SD_SD_SD_mmiRSE_SH_SH_RNSC_IiLi16EEESJ_SJ_SJ_RSD_RKNSB_6kwargsEEUldE1_EvSA_OT3_RT2_SG_mimSD_mmSD_SD_SD_SD_mmiSH_SH_SH_SJ_SJ_SJ_SJ_SK_
00000000000f5cd0 T __Z22trace_estimator_slq_pyILb1Ed16PyLinearOperatorIdE13ThreadedRNG64I18Xoshiro256StarStarNSt3__113random_deviceEERKZ14_trace_param_fILb1EdS1_EvPKT1_RKN8pybind117array_tIT0_Li17EEEmimSD_mmSD_SD_SD_SD_mmiRSE_SH_SH_RNSC_IiLi16EEESJ_SJ_SJ_RSD_RKNSB_6kwargsEEUldE_EvSA_OT3_RT2_SG_mimSD_mmSD_SD_SD_SD_mmiSH_SH_SH_SJ_SJ_SJ_SJ_SK_
00000000000f0210 T void trace_estimator_slq_py<true, double, PyLinearOperator<double>, ThreadedRNG64<pcg_detail::engine<unsigned long long, unsigned __int128, pcg_detail::xsl_rr_mixin<unsigned long long, unsigned __int128>, false, pcg_detail::specific_stream<unsigned __int128>, pcg_detail::default_multiplier<unsigned __int128> >, std::__1::random_device>, std::__1::identity const&>(PyLinearOperator<double> const*, std::__1::identity const&, ThreadedRNG64<pcg_detail::engine<unsigned long long, unsigned __int128, pcg_detail::xsl_rr_mixin<unsigned long long, unsigned __int128>, false, pcg_detail::specific_stream<unsigned __int128>, pcg_detail::default_multiplier<unsigned __int128> >, std::__1::random_device>&, pybind11::array_t<double, 17> const&, unsigned long, int, unsigned long, double, unsigned long, unsigned long, double, double, double, double, unsigned long, unsigned long, int, pybind11::array_t<double, 17>&, pybind11::array_t<double, 17>&, pybind11::array_t<double, 17>&, pybind11::array_t<int, 16>&, pybind11::array_t<int, 16>&, pybind11::array_t<int, 16>&, pybind11::array_t<int, 16>&, double&)
00000000000fc600 T __Z22trace_estimator_slq_pyILb1Ed16PyLinearOperatorIdE13ThreadedRNG64IN10pcg_detail6engineIyoNS3_12xsl_rr_mixinIyoEELb0ENS3_15specific_streamIoEENS3_18default_multiplierIoEEEENSt3__113random_deviceEERKZ14_trace_param_fILb1EdS1_EvPKT1_RKN8pybind117array_tIT0_Li17EEEmimSL_mmSL_SL_SL_SL_mmiRSM_SP_SP_RNSK_IiLi16EEESR_SR_SR_RSL_RKNSJ_6kwargsEEUldE0_EvSI_OT3_RT2_SO_mimSL_mmSL_SL_SL_SL_mmiSP_SP_SP_SR_SR_SR_SR_SS_
0000000000102460 T __Z22trace_estimator_slq_pyILb1Ed16PyLinearOperatorIdE13ThreadedRNG64IN10pcg_detail6engineIyoNS3_12xsl_rr_mixinIyoEELb0ENS3_15specific_streamIoEENS3_18default_multiplierIoEEEENSt3__113random_deviceEERKZ14_trace_param_fILb1EdS1_EvPKT1_RKN8pybind117array_tIT0_Li17EEEmimSL_mmSL_SL_SL_SL_mmiRSM_SP_SP_RNSK_IiLi16EEESR_SR_SR_RSL_RKNSJ_6kwargsEEUldE1_EvSI_OT3_RT2_SO_mimSL_mmSL_SL_SL_SL_mmiSP_SP_SP_SR_SR_SR_SR_SS_
00000000000f6cf0 T __Z22trace_estimator_slq_pyILb1Ed16PyLinearOperatorIdE13ThreadedRNG64IN10pcg_detail6engineIyoNS3_12xsl_rr_mixinIyoEELb0ENS3_15specific_streamIoEENS3_18default_multiplierIoEEEENSt3__113random_deviceEERKZ14_trace_param_fILb1EdS1_EvPKT1_RKN8pybind117array_tIT0_Li17EEEmimSL_mmSL_SL_SL_SL_mmiRSM_SP_SP_RNSK_IiLi16EEESR_SR_SR_RSL_RKNSJ_6kwargsEEUldE_EvSI_OT3_RT2_SO_mimSL_mmSL_SL_SL_SL_mmiSP_SP_SP_SR_SR_SR_SR_SS_
00000000000f0a20 T void trace_estimator_slq_py<true, double, PyLinearOperator<double>, ThreadedRNG64<std::__1::mersenne_twister_engine<unsigned long long, 64ul, 312ul, 156ul, 31ul, 13043109905998158313ull, 29ul, 6148914691236517205ull, 17ul, 8202884508482404352ull, 37ul, 18444473444759240704ull, 43ul, 6364136223846793005ull>, std::__1::random_device>, std::__1::identity const&>(PyLinearOperator<double> const*, std::__1::identity const&, ThreadedRNG64<std::__1::mersenne_twister_engine<unsigned long long, 64ul, 312ul, 156ul, 31ul, 13043109905998158313ull, 29ul, 6148914691236517205ull, 17ul, 8202884508482404352ull, 37ul, 18444473444759240704ull, 43ul, 6364136223846793005ull>, std::__1::random_device>&, pybind11::array_t<double, 17> const&, unsigned long, int, unsigned long, double, unsigned long, unsigned long, double, double, double, double, unsigned long, unsigned long, int, pybind11::array_t<double, 17>&, pybind11::array_t<double, 17>&, pybind11::array_t<double, 17>&, pybind11::array_t<int, 16>&, pybind11::array_t<int, 16>&, pybind11::array_t<int, 16>&, pybind11::array_t<int, 16>&, double&)
00000000000fce10 T __Z22trace_estimator_slq_pyILb1Ed16PyLinearOperatorIdE13ThreadedRNG64INSt3__123mersenne_twister_engineIyLm64ELm312ELm156ELm31ELy13043109905998158313ELm29ELy6148914691236517205ELm17ELy8202884508482404352ELm37ELy18444473444759240704ELm43ELy6364136223846793005EEENS3_13random_deviceEERKZ14_trace_param_fILb1EdS1_EvPKT1_RKN8pybind117array_tIT0_Li17EEEmimSE_mmSE_SE_SE_SE_mmiRSF_SI_SI_RNSD_IiLi16EEESK_SK_SK_RSE_RKNSC_6kwargsEEUldE0_EvSB_OT3_RT2_SH_mimSE_mmSE_SE_SE_SE_mmiSI_SI_SI_SK_SK_SK_SK_SL_
0000000000102c70 T __Z22trace_estimator_slq_pyILb1Ed16PyLinearOperatorIdE13ThreadedRNG64INSt3__123mersenne_twister_engineIyLm64ELm312ELm156ELm31ELy13043109905998158313ELm29ELy6148914691236517205ELm17ELy8202884508482404352ELm37ELy18444473444759240704ELm43ELy6364136223846793005EEENS3_13random_deviceEERKZ14_trace_param_fILb1EdS1_EvPKT1_RKN8pybind117array_tIT0_Li17EEEmimSE_mmSE_SE_SE_SE_mmiRSF_SI_SI_RNSD_IiLi16EEESK_SK_SK_RSE_RKNSC_6kwargsEEUldE1_EvSB_OT3_RT2_SH_mimSE_mmSE_SE_SE_SE_mmiSI_SI_SI_SK_SK_SK_SK_SL_
00000000000f7500 T __Z22trace_estimator_slq_pyILb1Ed16PyLinearOperatorIdE13ThreadedRNG64INSt3__123mersenne_twister_engineIyLm64ELm312ELm156ELm31ELy13043109905998158313ELm29ELy6148914691236517205ELm17ELy8202884508482404352ELm37ELy18444473444759240704ELm43ELy6364136223846793005EEENS3_13random_deviceEERKZ14_trace_param_fILb1EdS1_EvPKT1_RKN8pybind117array_tIT0_Li17EEEmimSE_mmSE_SE_SE_SE_mmiRSF_SI_SI_RNSD_IiLi16EEESK_SK_SK_RSE_RKNSC_6kwargsEEUldE_EvSB_OT3_RT2_SH_mimSE_mmSE_SE_SE_SE_mmiSI_SI_SI_SK_SK_SK_SK_SL_
00000000000efa00 T void trace_estimator_slq_py<true, double, PyLinearOperator<double>, ThreadedRNG64<std::__1::linear_congruential_engine<unsigned long long, 6364136223846793005ull, 1442695040888963407ull, 0ull>, std::__1::random_device>, std::__1::identity const&>(PyLinearOperator<double> const*, std::__1::identity const&, ThreadedRNG64<std::__1::linear_congruential_engine<unsigned long long, 6364136223846793005ull, 1442695040888963407ull, 0ull>, std::__1::random_device>&, pybind11::array_t<double, 17> const&, unsigned long, int, unsigned long, double, unsigned long, unsigned long, double, double, double, double, unsigned long, unsigned long, int, pybind11::array_t<double, 17>&, pybind11::array_t<double, 17>&, pybind11::array_t<double, 17>&, pybind11::array_t<int, 16>&, pybind11::array_t<int, 16>&, pybind11::array_t<int, 16>&, pybind11::array_t<int, 16>&, double&)
00000000000fbdf0 T __Z22trace_estimator_slq_pyILb1Ed16PyLinearOperatorIdE13ThreadedRNG64INSt3__126linear_congruential_engineIyLy6364136223846793005ELy1442695040888963407ELy0EEENS3_13random_deviceEERKZ14_trace_param_fILb1EdS1_EvPKT1_RKN8pybind117array_tIT0_Li17EEEmimSE_mmSE_SE_SE_SE_mmiRSF_SI_SI_RNSD_IiLi16EEESK_SK_SK_RSE_RKNSC_6kwargsEEUldE0_EvSB_OT3_RT2_SH_mimSE_mmSE_SE_SE_SE_mmiSI_SI_SI_SK_SK_SK_SK_SL_
0000000000101c50 T __Z22trace_estimator_slq_pyILb1Ed16PyLinearOperatorIdE13ThreadedRNG64INSt3__126linear_congruential_engineIyLy6364136223846793005ELy1442695040888963407ELy0EEENS3_13random_deviceEERKZ14_trace_param_fILb1EdS1_EvPKT1_RKN8pybind117array_tIT0_Li17EEEmimSE_mmSE_SE_SE_SE_mmiRSF_SI_SI_RNSD_IiLi16EEESK_SK_SK_RSE_RKNSC_6kwargsEEUldE1_EvSB_OT3_RT2_SH_mimSE_mmSE_SE_SE_SE_mmiSI_SI_SI_SK_SK_SK_SK_SL_
00000000000f64e0 T __Z22trace_estimator_slq_pyILb1Ed16PyLinearOperatorIdE13ThreadedRNG64INSt3__126linear_congruential_engineIyLy6364136223846793005ELy1442695040888963407ELy0EEENS3_13random_deviceEERKZ14_trace_param_fILb1EdS1_EvPKT1_RKN8pybind117array_tIT0_Li17EEEmimSE_mmSE_SE_SE_SE_mmiRSF_SI_SI_RNSD_IiLi16EEESK_SK_SK_RSE_RKNSC_6kwargsEEUldE_EvSB_OT3_RT2_SH_mimSE_mmSE_SE_SE_SE_mmiSI_SI_SI_SK_SK_SK_SK_SL_
00000000000ba820 T void trace_estimator_slq_py<true, double, DenseEigenLinearOperator<double>, ThreadedRNG64<SplitMix64, std::__1::random_device>, std::__1::identity const&>(DenseEigenLinearOperator<double> const*, std::__1::identity const&, ThreadedRNG64<SplitMix64, std::__1::random_device>&, pybind11::array_t<double, 17> const&, unsigned long, int, unsigned long, double, unsigned long, unsigned long, double, double, double, double, unsigned long, unsigned long, int, pybind11::array_t<double, 17>&, pybind11::array_t<double, 17>&, pybind11::array_t<double, 17>&, pybind11::array_t<int, 16>&, pybind11::array_t<int, 16>&, pybind11::array_t<int, 16>&, pybind11::array_t<int, 16>&, double&)
00000000000c72f0 T __Z22trace_estimator_slq_pyILb1Ed24DenseEigenLinearOperatorIdE13ThreadedRNG64I10SplitMix64NSt3__113random_deviceEERKZ14_trace_param_fILb1EdS1_EvPKT1_RKN8pybind117array_tIT0_Li17EEEmimSD_mmSD_SD_SD_SD_mmiRSE_SH_SH_RNSC_IiLi16EEESJ_SJ_SJ_RSD_RKNSB_6kwargsEEUldE0_EvSA_OT3_RT2_SG_mimSD_mmSD_SD_SD_SD_mmiSH_SH_SH_SJ_SJ_SJ_SJ_SK_
00000000000cd0b0 T __Z22trace_estimator_slq_pyILb1Ed24DenseEigenLinearOperatorIdE13ThreadedRNG64I10SplitMix64NSt3__113random_deviceEERKZ14_trace_param_fILb1EdS1_EvPKT1_RKN8pybind117array_tIT0_Li17EEEmimSD_mmSD_SD_SD_SD_mmiRSE_SH_SH_RNSC_IiLi16EEESJ_SJ_SJ_RSD_RKNSB_6kwargsEEUldE1_EvSA_OT3_RT2_SG_mimSD_mmSD_SD_SD_SD_mmiSH_SH_SH_SJ_SJ_SJ_SJ_SK_
00000000000c19e0 T __Z22trace_estimator_slq_pyILb1Ed24DenseEigenLinearOperatorIdE13ThreadedRNG64I10SplitMix64NSt3__113random_deviceEERKZ14_trace_param_fILb1EdS1_EvPKT1_RKN8pybind117array_tIT0_Li17EEEmimSD_mmSD_SD_SD_SD_mmiRSE_SH_SH_RNSC_IiLi16EEESJ_SJ_SJ_RSD_RKNSB_6kwargsEEUldE_EvSA_OT3_RT2_SG_mimSD_mmSD_SD_SD_SD_mmiSH_SH_SH_SJ_SJ_SJ_SJ_SK_
00000000000bb030 T void trace_estimator_slq_py<true, double, DenseEigenLinearOperator<double>, ThreadedRNG64<Xoshiro256StarStar, std::__1::random_device>, std::__1::identity const&>(DenseEigenLinearOperator<double> const*, std::__1::identity const&, ThreadedRNG64<Xoshiro256StarStar, std::__1::random_device>&, pybind11::array_t<double, 17> const&, unsigned long, int, unsigned long, double, unsigned long, unsigned long, double, double, double, double, unsigned long, unsigned long, int, pybind11::array_t<double, 17>&, pybind11::array_t<double, 17>&, pybind11::array_t<double, 17>&, pybind11::array_t<int, 16>&, pybind11::array_t<int, 16>&, pybind11::array_t<int, 16>&, pybind11::array_t<int, 16>&, double&)
00000000000c7b00 T __Z22trace_estimator_slq_pyILb1Ed24DenseEigenLinearOperatorIdE13ThreadedRNG64I18Xoshiro256StarStarNSt3__113random_deviceEERKZ14_trace_param_fILb1EdS1_EvPKT1_RKN8pybind117array_tIT0_Li17EEEmimSD_mmSD_SD_SD_SD_mmiRSE_SH_SH_RNSC_IiLi16EEESJ_SJ_SJ_RSD_RKNSB_6kwargsEEUldE0_EvSA_OT3_RT2_SG_mimSD_mmSD_SD_SD_SD_mmiSH_SH_SH_SJ_SJ_SJ_SJ_SK_
00000000000cd8c0 T __Z22trace_estimator_slq_pyILb1Ed24DenseEigenLinearOperatorIdE13ThreadedRNG64I18Xoshiro256StarStarNSt3__113random_deviceEERKZ14_trace_param_fILb1EdS1_EvPKT1_RKN8pybind117array_tIT0_Li17EEEmimSD_mmSD_SD_SD_SD_mmiRSE_SH_SH_RNSC_IiLi16EEESJ_SJ_SJ_RSD_RKNSB_6kwargsEEUldE1_EvSA_OT3_RT2_SG_mimSD_mmSD_SD_SD_SD_mmiSH_SH_SH_SJ_SJ_SJ_SJ_SK_
00000000000c21f0 T __Z22trace_estimator_slq_pyILb1Ed24DenseEigenLinearOperatorIdE13ThreadedRNG64I18Xoshiro256StarStarNSt3__113random_deviceEERKZ14_trace_param_fILb1EdS1_EvPKT1_RKN8pybind117array_tIT0_Li17EEEmimSD_mmSD_SD_SD_SD_mmiRSE_SH_SH_RNSC_IiLi16EEESJ_SJ_SJ_RSD_RKNSB_6kwargsEEUldE_EvSA_OT3_RT2_SG_mimSD_mmSD_SD_SD_SD_mmiSH_SH_SH_SJ_SJ_SJ_SJ_SK_
00000000000bc050 T void trace_estimator_slq_py<true, double, DenseEigenLinearOperator<double>, ThreadedRNG64<pcg_detail::engine<unsigned long long, unsigned __int128, pcg_detail::xsl_rr_mixin<unsigned long long, unsigned __int128>, false, pcg_detail::specific_stream<unsigned __int128>, pcg_detail::default_multiplier<unsigned __int128> >, std::__1::random_device>, std::__1::identity const&>(DenseEigenLinearOperator<double> const*, std::__1::identity const&, ThreadedRNG64<pcg_detail::engine<unsigned long long, unsigned __int128, pcg_detail::xsl_rr_mixin<unsigned long long, unsigned __int128>, false, pcg_detail::specific_stream<unsigned __int128>, pcg_detail::default_multiplier<unsigned __int128> >, std::__1::random_device>&, pybind11::array_t<double, 17> const&, unsigned long, int, unsigned long, double, unsigned long, unsigned long, double, double, double, double, unsigned long, unsigned long, int, pybind11::array_t<double, 17>&, pybind11::array_t<double, 17>&, pybind11::array_t<double, 17>&, pybind11::array_t<int, 16>&, pybind11::array_t<int, 16>&, pybind11::array_t<int, 16>&, pybind11::array_t<int, 16>&, double&)
00000000000c8b20 T __Z22trace_estimator_slq_pyILb1Ed24DenseEigenLinearOperatorIdE13ThreadedRNG64IN10pcg_detail6engineIyoNS3_12xsl_rr_mixinIyoEELb0ENS3_15specific_streamIoEENS3_18default_multiplierIoEEEENSt3__113random_deviceEERKZ14_trace_param_fILb1EdS1_EvPKT1_RKN8pybind117array_tIT0_Li17EEEmimSL_mmSL_SL_SL_SL_mmiRSM_SP_SP_RNSK_IiLi16EEESR_SR_SR_RSL_RKNSJ_6kwargsEEUldE0_EvSI_OT3_RT2_SO_mimSL_mmSL_SL_SL_SL_mmiSP_SP_SP_SR_SR_SR_SR_SS_
00000000000ce8e0 T __Z22trace_estimator_slq_pyILb1Ed24DenseEigenLinearOperatorIdE13ThreadedRNG64IN10pcg_detail6engineIyoNS3_12xsl_rr_mixinIyoEELb0ENS3_15specific_streamIoEENS3_18default_multiplierIoEEEENSt3__113random_deviceEERKZ14_trace_param_fILb1EdS1_EvPKT1_RKN8pybind117array_tIT0_Li17EEEmimSL_mmSL_SL_SL_SL_mmiRSM_SP_SP_RNSK_IiLi16EEESR_SR_SR_RSL_RKNSJ_6kwargsEEUldE1_EvSI_OT3_RT2_SO_mimSL_mmSL_SL_SL_SL_mmiSP_SP_SP_SR_SR_SR_SR_SS_
00000000000c3210 T __Z22trace_estimator_slq_pyILb1Ed24DenseEigenLinearOperatorIdE13ThreadedRNG64IN10pcg_detail6engineIyoNS3_12xsl_rr_mixinIyoEELb0ENS3_15specific_streamIoEENS3_18default_multiplierIoEEEENSt3__113random_deviceEERKZ14_trace_param_fILb1EdS1_EvPKT1_RKN8pybind117array_tIT0_Li17EEEmimSL_mmSL_SL_SL_SL_mmiRSM_SP_SP_RNSK_IiLi16EEESR_SR_SR_RSL_RKNSJ_6kwargsEEUldE_EvSI_OT3_RT2_SO_mimSL_mmSL_SL_SL_SL_mmiSP_SP_SP_SR_SR_SR_SR_SS_
00000000000bc860 T void trace_estimator_slq_py<true, double, DenseEigenLinearOperator<double>, ThreadedRNG64<std::__1::mersenne_twister_engine<unsigned long long, 64ul, 312ul, 156ul, 31ul, 13043109905998158313ull, 29ul, 6148914691236517205ull, 17ul, 8202884508482404352ull, 37ul, 18444473444759240704ull, 43ul, 6364136223846793005ull>, std::__1::random_device>, std::__1::identity const&>(DenseEigenLinearOperator<double> const*, std::__1::identity const&, ThreadedRNG64<std::__1::mersenne_twister_engine<unsigned long long, 64ul, 312ul, 156ul, 31ul, 13043109905998158313ull, 29ul, 6148914691236517205ull, 17ul, 8202884508482404352ull, 37ul, 18444473444759240704ull, 43ul, 6364136223846793005ull>, std::__1::random_device>&, pybind11::array_t<double, 17> const&, unsigned long, int, unsigned long, double, unsigned long, unsigned long, double, double, double, double, unsigned long, unsigned long, int, pybind11::array_t<double, 17>&, pybind11::array_t<double, 17>&, pybind11::array_t<double, 17>&, pybind11::array_t<int, 16>&, pybind11::array_t<int, 16>&, pybind11::array_t<int, 16>&, pybind11::array_t<int, 16>&, double&)
00000000000c9330 T __Z22trace_estimator_slq_pyILb1Ed24DenseEigenLinearOperatorIdE13ThreadedRNG64INSt3__123mersenne_twister_engineIyLm64ELm312ELm156ELm31ELy13043109905998158313ELm29ELy6148914691236517205ELm17ELy8202884508482404352ELm37ELy18444473444759240704ELm43ELy6364136223846793005EEENS3_13random_deviceEERKZ14_trace_param_fILb1EdS1_EvPKT1_RKN8pybind117array_tIT0_Li17EEEmimSE_mmSE_SE_SE_SE_mmiRSF_SI_SI_RNSD_IiLi16EEESK_SK_SK_RSE_RKNSC_6kwargsEEUldE0_EvSB_OT3_RT2_SH_mimSE_mmSE_SE_SE_SE_mmiSI_SI_SI_SK_SK_SK_SK_SL_
00000000000cf0f0 T __Z22trace_estimator_slq_pyILb1Ed24DenseEigenLinearOperatorIdE13ThreadedRNG64INSt3__123mersenne_twister_engineIyLm64ELm312ELm156ELm31ELy13043109905998158313ELm29ELy6148914691236517205ELm17ELy8202884508482404352ELm37ELy18444473444759240704ELm43ELy6364136223846793005EEENS3_13random_deviceEERKZ14_trace_param_fILb1EdS1_EvPKT1_RKN8pybind117array_tIT0_Li17EEEmimSE_mmSE_SE_SE_SE_mmiRSF_SI_SI_RNSD_IiLi16EEESK_SK_SK_RSE_RKNSC_6kwargsEEUldE1_EvSB_OT3_RT2_SH_mimSE_mmSE_SE_SE_SE_mmiSI_SI_SI_SK_SK_SK_SK_SL_
00000000000c3a20 T __Z22trace_estimator_slq_pyILb1Ed24DenseEigenLinearOperatorIdE13ThreadedRNG64INSt3__123mersenne_twister_engineIyLm64ELm312ELm156ELm31ELy13043109905998158313ELm29ELy6148914691236517205ELm17ELy8202884508482404352ELm37ELy18444473444759240704ELm43ELy6364136223846793005EEENS3_13random_deviceEERKZ14_trace_param_fILb1EdS1_EvPKT1_RKN8pybind117array_tIT0_Li17EEEmimSE_mmSE_SE_SE_SE_mmiRSF_SI_SI_RNSD_IiLi16EEESK_SK_SK_RSE_RKNSC_6kwargsEEUldE_EvSB_OT3_RT2_SH_mimSE_mmSE_SE_SE_SE_mmiSI_SI_SI_SK_SK_SK_SK_SL_
00000000000bb840 T void trace_estimator_slq_py<true, double, DenseEigenLinearOperator<double>, ThreadedRNG64<std::__1::linear_congruential_engine<unsigned long long, 6364136223846793005ull, 1442695040888963407ull, 0ull>, std::__1::random_device>, std::__1::identity const&>(DenseEigenLinearOperator<double> const*, std::__1::identity const&, ThreadedRNG64<std::__1::linear_congruential_engine<unsigned long long, 6364136223846793005ull, 1442695040888963407ull, 0ull>, std::__1::random_device>&, pybind11::array_t<double, 17> const&, unsigned long, int, unsigned long, double, unsigned long, unsigned long, double, double, double, double, unsigned long, unsigned long, int, pybind11::array_t<double, 17>&, pybind11::array_t<double, 17>&, pybind11::array_t<double, 17>&, pybind11::array_t<int, 16>&, pybind11::array_t<int, 16>&, pybind11::array_t<int, 16>&, pybind11::array_t<int, 16>&, double&)
00000000000c8310 T __Z22trace_estimator_slq_pyILb1Ed24DenseEigenLinearOperatorIdE13ThreadedRNG64INSt3__126linear_congruential_engineIyLy6364136223846793005ELy1442695040888963407ELy0EEENS3_13random_deviceEERKZ14_trace_param_fILb1EdS1_EvPKT1_RKN8pybind117array_tIT0_Li17EEEmimSE_mmSE_SE_SE_SE_mmiRSF_SI_SI_RNSD_IiLi16EEESK_SK_SK_RSE_RKNSC_6kwargsEEUldE0_EvSB_OT3_RT2_SH_mimSE_mmSE_SE_SE_SE_mmiSI_SI_SI_SK_SK_SK_SK_SL_
00000000000ce0d0 T __Z22trace_estimator_slq_pyILb1Ed24DenseEigenLinearOperatorIdE13ThreadedRNG64INSt3__126linear_congruential_engineIyLy6364136223846793005ELy1442695040888963407ELy0EEENS3_13random_deviceEERKZ14_trace_param_fILb1EdS1_EvPKT1_RKN8pybind117array_tIT0_Li17EEEmimSE_mmSE_SE_SE_SE_mmiRSF_SI_SI_RNSD_IiLi16EEESK_SK_SK_RSE_RKNSC_6kwargsEEUldE1_EvSB_OT3_RT2_SH_mimSE_mmSE_SE_SE_SE_mmiSI_SI_SI_SK_SK_SK_SK_SL_
00000000000c2a00 T __Z22trace_estimator_slq_pyILb1Ed24DenseEigenLinearOperatorIdE13ThreadedRNG64INSt3__126linear_congruential_engineIyLy6364136223846793005ELy1442695040888963407ELy0EEENS3_13random_deviceEERKZ14_trace_param_fILb1EdS1_EvPKT1_RKN8pybind117array_tIT0_Li17EEEmimSE_mmSE_SE_SE_SE_mmiRSF_SI_SI_RNSD_IiLi16EEESK_SK_SK_RSE_RKNSC_6kwargsEEUldE_EvSB_OT3_RT2_SH_mimSE_mmSE_SE_SE_SE_mmiSI_SI_SI_SK_SK_SK_SK_SL_
0000000000086150 T void trace_estimator_slq_py<true, double, SparseEigenLinearOperator<double>, ThreadedRNG64<SplitMix64, std::__1::random_device>, std::__1::identity const&>(SparseEigenLinearOperator<double> const*, std::__1::identity const&, ThreadedRNG64<SplitMix64, std::__1::random_device>&, pybind11::array_t<double, 17> const&, unsigned long, int, unsigned long, double, unsigned long, unsigned long, double, double, double, double, unsigned long, unsigned long, int, pybind11::array_t<double, 17>&, pybind11::array_t<double, 17>&, pybind11::array_t<double, 17>&, pybind11::array_t<int, 16>&, pybind11::array_t<int, 16>&, pybind11::array_t<int, 16>&, pybind11::array_t<int, 16>&, double&)
0000000000091f70 T __Z22trace_estimator_slq_pyILb1Ed25SparseEigenLinearOperatorIdE13ThreadedRNG64I10SplitMix64NSt3__113random_deviceEERKZ14_trace_param_fILb1EdS1_EvPKT1_RKN8pybind117array_tIT0_Li17EEEmimSD_mmSD_SD_SD_SD_mmiRSE_SH_SH_RNSC_IiLi16EEESJ_SJ_SJ_RSD_RKNSB_6kwargsEEUldE0_EvSA_OT3_RT2_SG_mimSD_mmSD_SD_SD_SD_mmiSH_SH_SH_SJ_SJ_SJ_SJ_SK_
0000000000097d30 T __Z22trace_estimator_slq_pyILb1Ed25SparseEigenLinearOperatorIdE13ThreadedRNG64I10SplitMix64NSt3__113random_deviceEERKZ14_trace_param_fILb1EdS1_EvPKT1_RKN8pybind117array_tIT0_Li17EEEmimSD_mmSD_SD_SD_SD_mmiRSE_SH_SH_RNSC_IiLi16EEESJ_SJ_SJ_RSD_RKNSB_6kwargsEEUldE1_EvSA_OT3_RT2_SG_mimSD_mmSD_SD_SD_SD_mmiSH_SH_SH_SJ_SJ_SJ_SJ_SK_
000000000008c660 T __Z22trace_estimator_slq_pyILb1Ed25SparseEigenLinearOperatorIdE13ThreadedRNG64I10SplitMix64NSt3__113random_deviceEERKZ14_trace_param_fILb1EdS1_EvPKT1_RKN8pybind117array_tIT0_Li17EEEmimSD_mmSD_SD_SD_SD_mmiRSE_SH_SH_RNSC_IiLi16EEESJ_SJ_SJ_RSD_RKNSB_6kwargsEEUldE_EvSA_OT3_RT2_SG_mimSD_mmSD_SD_SD_SD_mmiSH_SH_SH_SJ_SJ_SJ_SJ_SK_
0000000000086960 T void trace_estimator_slq_py<true, double, SparseEigenLinearOperator<double>, ThreadedRNG64<Xoshiro256StarStar, std::__1::random_device>, std::__1::identity const&>(SparseEigenLinearOperator<double> const*, std::__1::identity const&, ThreadedRNG64<Xoshiro256StarStar, std::__1::random_device>&, pybind11::array_t<double, 17> const&, unsigned long, int, unsigned long, double, unsigned long, unsigned long, double, double, double, double, unsigned long, unsigned long, int, pybind11::array_t<double, 17>&, pybind11::array_t<double, 17>&, pybind11::array_t<double, 17>&, pybind11::array_t<int, 16>&, pybind11::array_t<int, 16>&, pybind11::array_t<int, 16>&, pybind11::array_t<int, 16>&, double&)
0000000000092780 T __Z22trace_estimator_slq_pyILb1Ed25SparseEigenLinearOperatorIdE13ThreadedRNG64I18Xoshiro256StarStarNSt3__113random_deviceEERKZ14_trace_param_fILb1EdS1_EvPKT1_RKN8pybind117array_tIT0_Li17EEEmimSD_mmSD_SD_SD_SD_mmiRSE_SH_SH_RNSC_IiLi16EEESJ_SJ_SJ_RSD_RKNSB_6kwargsEEUldE0_EvSA_OT3_RT2_SG_mimSD_mmSD_SD_SD_SD_mmiSH_SH_SH_SJ_SJ_SJ_SJ_SK_
0000000000098540 T __Z22trace_estimator_slq_pyILb1Ed25SparseEigenLinearOperatorIdE13ThreadedRNG64I18Xoshiro256StarStarNSt3__113random_deviceEERKZ14_trace_param_fILb1EdS1_EvPKT1_RKN8pybind117array_tIT0_Li17EEEmimSD_mmSD_SD_SD_SD_mmiRSE_SH_SH_RNSC_IiLi16EEESJ_SJ_SJ_RSD_RKNSB_6kwargsEEUldE1_EvSA_OT3_RT2_SG_mimSD_mmSD_SD_SD_SD_mmiSH_SH_SH_SJ_SJ_SJ_SJ_SK_
000000000008ce70 T __Z22trace_estimator_slq_pyILb1Ed25SparseEigenLinearOperatorIdE13ThreadedRNG64I18Xoshiro256StarStarNSt3__113random_deviceEERKZ14_trace_param_fILb1EdS1_EvPKT1_RKN8pybind117array_tIT0_Li17EEEmimSD_mmSD_SD_SD_SD_mmiRSE_SH_SH_RNSC_IiLi16EEESJ_SJ_SJ_RSD_RKNSB_6kwargsEEUldE_EvSA_OT3_RT2_SG_mimSD_mmSD_SD_SD_SD_mmiSH_SH_SH_SJ_SJ_SJ_SJ_SK_
0000000000087980 T void trace_estimator_slq_py<true, double, SparseEigenLinearOperator<double>, ThreadedRNG64<pcg_detail::engine<unsigned long long, unsigned __int128, pcg_detail::xsl_rr_mixin<unsigned long long, unsigned __int128>, false, pcg_detail::specific_stream<unsigned __int128>, pcg_detail::default_multiplier<unsigned __int128> >, std::__1::random_device>, std::__1::identity const&>(SparseEigenLinearOperator<double> const*, std::__1::identity const&, ThreadedRNG64<pcg_detail::engine<unsigned long long, unsigned __int128, pcg_detail::xsl_rr_mixin<unsigned long long, unsigned __int128>, false, pcg_detail::specific_stream<unsigned __int128>, pcg_detail::default_multiplier<unsigned __int128> >, std::__1::random_device>&, pybind11::array_t<double, 17> const&, unsigned long, int, unsigned long, double, unsigned long, unsigned long, double, double, double, double, unsigned long, unsigned long, int, pybind11::array_t<double, 17>&, pybind11::array_t<double, 17>&, pybind11::array_t<double, 17>&, pybind11::array_t<int, 16>&, pybind11::array_t<int, 16>&, pybind11::array_t<int, 16>&, pybind11::array_t<int, 16>&, double&)
00000000000937a0 T __Z22trace_estimator_slq_pyILb1Ed25SparseEigenLinearOperatorIdE13ThreadedRNG64IN10pcg_detail6engineIyoNS3_12xsl_rr_mixinIyoEELb0ENS3_15specific_streamIoEENS3_18default_multiplierIoEEEENSt3__113random_deviceEERKZ14_trace_param_fILb1EdS1_EvPKT1_RKN8pybind117array_tIT0_Li17EEEmimSL_mmSL_SL_SL_SL_mmiRSM_SP_SP_RNSK_IiLi16EEESR_SR_SR_RSL_RKNSJ_6kwargsEEUldE0_EvSI_OT3_RT2_SO_mimSL_mmSL_SL_SL_SL_mmiSP_SP_SP_SR_SR_SR_SR_SS_
0000000000099560 T __Z22trace_estimator_slq_pyILb1Ed25SparseEigenLinearOperatorIdE13ThreadedRNG64IN10pcg_detail6engineIyoNS3_12xsl_rr_mixinIyoEELb0ENS3_15specific_streamIoEENS3_18default_multiplierIoEEEENSt3__113random_deviceEERKZ14_trace_param_fILb1EdS1_EvPKT1_RKN8pybind117array_tIT0_Li17EEEmimSL_mmSL_SL_SL_SL_mmiRSM_SP_SP_RNSK_IiLi16EEESR_SR_SR_RSL_RKNSJ_6kwargsEEUldE1_EvSI_OT3_RT2_SO_mimSL_mmSL_SL_SL_SL_mmiSP_SP_SP_SR_SR_SR_SR_SS_
000000000008de90 T __Z22trace_estimator_slq_pyILb1Ed25SparseEigenLinearOperatorIdE13ThreadedRNG64IN10pcg_detail6engineIyoNS3_12xsl_rr_mixinIyoEELb0ENS3_15specific_streamIoEENS3_18default_multiplierIoEEEENSt3__113random_deviceEERKZ14_trace_param_fILb1EdS1_EvPKT1_RKN8pybind117array_tIT0_Li17EEEmimSL_mmSL_SL_SL_SL_mmiRSM_SP_SP_RNSK_IiLi16EEESR_SR_SR_RSL_RKNSJ_6kwargsEEUldE_EvSI_OT3_RT2_SO_mimSL_mmSL_SL_SL_SL_mmiSP_SP_SP_SR_SR_SR_SR_SS_
0000000000088190 T void trace_estimator_slq_py<true, double, SparseEigenLinearOperator<double>, ThreadedRNG64<std::__1::mersenne_twister_engine<unsigned long long, 64ul, 312ul, 156ul, 31ul, 13043109905998158313ull, 29ul, 6148914691236517205ull, 17ul, 8202884508482404352ull, 37ul, 18444473444759240704ull, 43ul, 6364136223846793005ull>, std::__1::random_device>, std::__1::identity const&>(SparseEigenLinearOperator<double> const*, std::__1::identity const&, ThreadedRNG64<std::__1::mersenne_twister_engine<unsigned long long, 64ul, 312ul, 156ul, 31ul, 13043109905998158313ull, 29ul, 6148914691236517205ull, 17ul, 8202884508482404352ull, 37ul, 18444473444759240704ull, 43ul, 6364136223846793005ull>, std::__1::random_device>&, pybind11::array_t<double, 17> const&, unsigned long, int, unsigned long, double, unsigned long, unsigned long, double, double, double, double, unsigned long, unsigned long, int, pybind11::array_t<double, 17>&, pybind11::array_t<double, 17>&, pybind11::array_t<double, 17>&, pybind11::array_t<int, 16>&, pybind11::array_t<int, 16>&, pybind11::array_t<int, 16>&, pybind11::array_t<int, 16>&, double&)
0000000000093fb0 T __Z22trace_estimator_slq_pyILb1Ed25SparseEigenLinearOperatorIdE13ThreadedRNG64INSt3__123mersenne_twister_engineIyLm64ELm312ELm156ELm31ELy13043109905998158313ELm29ELy6148914691236517205ELm17ELy8202884508482404352ELm37ELy18444473444759240704ELm43ELy6364136223846793005EEENS3_13random_deviceEERKZ14_trace_param_fILb1EdS1_EvPKT1_RKN8pybind117array_tIT0_Li17EEEmimSE_mmSE_SE_SE_SE_mmiRSF_SI_SI_RNSD_IiLi16EEESK_SK_SK_RSE_RKNSC_6kwargsEEUldE0_EvSB_OT3_RT2_SH_mimSE_mmSE_SE_SE_SE_mmiSI_SI_SI_SK_SK_SK_SK_SL_
0000000000099d70 T __Z22trace_estimator_slq_pyILb1Ed25SparseEigenLinearOperatorIdE13ThreadedRNG64INSt3__123mersenne_twister_engineIyLm64ELm312ELm156ELm31ELy13043109905998158313ELm29ELy6148914691236517205ELm17ELy8202884508482404352ELm37ELy18444473444759240704ELm43ELy6364136223846793005EEENS3_13random_deviceEERKZ14_trace_param_fILb1EdS1_EvPKT1_RKN8pybind117array_tIT0_Li17EEEmimSE_mmSE_SE_SE_SE_mmiRSF_SI_SI_RNSD_IiLi16EEESK_SK_SK_RSE_RKNSC_6kwargsEEUldE1_EvSB_OT3_RT2_SH_mimSE_mmSE_SE_SE_SE_mmiSI_SI_SI_SK_SK_SK_SK_SL_
000000000008e6a0 T __Z22trace_estimator_slq_pyILb1Ed25SparseEigenLinearOperatorIdE13ThreadedRNG64INSt3__123mersenne_twister_engineIyLm64ELm312ELm156ELm31ELy13043109905998158313ELm29ELy6148914691236517205ELm17ELy8202884508482404352ELm37ELy18444473444759240704ELm43ELy6364136223846793005EEENS3_13random_deviceEERKZ14_trace_param_fILb1EdS1_EvPKT1_RKN8pybind117array_tIT0_Li17EEEmimSE_mmSE_SE_SE_SE_mmiRSF_SI_SI_RNSD_IiLi16EEESK_SK_SK_RSE_RKNSC_6kwargsEEUldE_EvSB_OT3_RT2_SH_mimSE_mmSE_SE_SE_SE_mmiSI_SI_SI_SK_SK_SK_SK_SL_
0000000000087170 T void trace_estimator_slq_py<true, double, SparseEigenLinearOperator<double>, ThreadedRNG64<std::__1::linear_congruential_engine<unsigned long long, 6364136223846793005ull, 1442695040888963407ull, 0ull>, std::__1::random_device>, std::__1::identity const&>(SparseEigenLinearOperator<double> const*, std::__1::identity const&, ThreadedRNG64<std::__1::linear_congruential_engine<unsigned long long, 6364136223846793005ull, 1442695040888963407ull, 0ull>, std::__1::random_device>&, pybind11::array_t<double, 17> const&, unsigned long, int, unsigned long, double, unsigned long, unsigned long, double, double, double, double, unsigned long, unsigned long, int, pybind11::array_t<double, 17>&, pybind11::array_t<double, 17>&, pybind11::array_t<double, 17>&, pybind11::array_t<int, 16>&, pybind11::array_t<int, 16>&, pybind11::array_t<int, 16>&, pybind11::array_t<int, 16>&, double&)
0000000000092f90 T __Z22trace_estimator_slq_pyILb1Ed25SparseEigenLinearOperatorIdE13ThreadedRNG64INSt3__126linear_congruential_engineIyLy6364136223846793005ELy1442695040888963407ELy0EEENS3_13random_deviceEERKZ14_trace_param_fILb1EdS1_EvPKT1_RKN8pybind117array_tIT0_Li17EEEmimSE_mmSE_SE_SE_SE_mmiRSF_SI_SI_RNSD_IiLi16EEESK_SK_SK_RSE_RKNSC_6kwargsEEUldE0_EvSB_OT3_RT2_SH_mimSE_mmSE_SE_SE_SE_mmiSI_SI_SI_SK_SK_SK_SK_SL_
0000000000098d50 T __Z22trace_estimator_slq_pyILb1Ed25SparseEigenLinearOperatorIdE13ThreadedRNG64INSt3__126linear_congruential_engineIyLy6364136223846793005ELy1442695040888963407ELy0EEENS3_13random_deviceEERKZ14_trace_param_fILb1EdS1_EvPKT1_RKN8pybind117array_tIT0_Li17EEEmimSE_mmSE_SE_SE_SE_mmiRSF_SI_SI_RNSD_IiLi16EEESK_SK_SK_RSE_RKNSC_6kwargsEEUldE1_EvSB_OT3_RT2_SH_mimSE_mmSE_SE_SE_SE_mmiSI_SI_SI_SK_SK_SK_SK_SL_
000000000008d680 T __Z22trace_estimator_slq_pyILb1Ed25SparseEigenLinearOperatorIdE13ThreadedRNG64INSt3__126linear_congruential_engineIyLy6364136223846793005ELy1442695040888963407ELy0EEENS3_13random_deviceEERKZ14_trace_param_fILb1EdS1_EvPKT1_RKN8pybind117array_tIT0_Li17EEEmimSE_mmSE_SE_SE_SE_mmiRSF_SI_SI_RNSD_IiLi16EEESK_SK_SK_RSE_RKNSC_6kwargsEEUldE_EvSB_OT3_RT2_SH_mimSE_mmSE_SE_SE_SE_mmiSI_SI_SI_SK_SK_SK_SK_SL_
00000000000d49b0 T void trace_estimator_slq_py<true, float, PyLinearOperator<float>, ThreadedRNG64<SplitMix64, std::__1::random_device>, std::__1::identity const&>(PyLinearOperator<float> const*, std::__1::identity const&, ThreadedRNG64<SplitMix64, std::__1::random_device>&, pybind11::array_t<float, 17> const&, unsigned long, int, unsigned long, float, unsigned long, unsigned long, float, float, float, float, unsigned long, unsigned long, int, pybind11::array_t<float, 17>&, pybind11::array_t<float, 17>&, pybind11::array_t<float, 17>&, pybind11::array_t<int, 16>&, pybind11::array_t<int, 16>&, pybind11::array_t<int, 16>&, pybind11::array_t<int, 16>&, float&)
00000000000e1290 T __Z22trace_estimator_slq_pyILb1Ef16PyLinearOperatorIfE13ThreadedRNG64I10SplitMix64NSt3__113random_deviceEERKZ14_trace_param_fILb1EfS1_EvPKT1_RKN8pybind117array_tIT0_Li17EEEmimSD_mmSD_SD_SD_SD_mmiRSE_SH_SH_RNSC_IiLi16EEESJ_SJ_SJ_RSD_RKNSB_6kwargsEEUlfE0_EvSA_OT3_RT2_SG_mimSD_mmSD_SD_SD_SD_mmiSH_SH_SH_SJ_SJ_SJ_SJ_SK_
00000000000e6fb0 T __Z22trace_estimator_slq_pyILb1Ef16PyLinearOperatorIfE13ThreadedRNG64I10SplitMix64NSt3__113random_deviceEERKZ14_trace_param_fILb1EfS1_EvPKT1_RKN8pybind117array_tIT0_Li17EEEmimSD_mmSD_SD_SD_SD_mmiRSE_SH_SH_RNSC_IiLi16EEESJ_SJ_SJ_RSD_RKNSB_6kwargsEEUlfE1_EvSA_OT3_RT2_SG_mimSD_mmSD_SD_SD_SD_mmiSH_SH_SH_SJ_SJ_SJ_SJ_SK_
00000000000db980 T __Z22trace_estimator_slq_pyILb1Ef16PyLinearOperatorIfE13ThreadedRNG64I10SplitMix64NSt3__113random_deviceEERKZ14_trace_param_fILb1EfS1_EvPKT1_RKN8pybind117array_tIT0_Li17EEEmimSD_mmSD_SD_SD_SD_mmiRSE_SH_SH_RNSC_IiLi16EEESJ_SJ_SJ_RSD_RKNSB_6kwargsEEUlfE_EvSA_OT3_RT2_SG_mimSD_mmSD_SD_SD_SD_mmiSH_SH_SH_SJ_SJ_SJ_SJ_SK_
00000000000d51c0 T void trace_estimator_slq_py<true, float, PyLinearOperator<float>, ThreadedRNG64<Xoshiro256StarStar, std::__1::random_device>, std::__1::identity const&>(PyLinearOperator<float> const*, std::__1::identity const&, ThreadedRNG64<Xoshiro256StarStar, std::__1::random_device>&, pybind11::array_t<float, 17> const&, unsigned long, int, unsigned long, float, unsigned long, unsigned long, float, float, float, float, unsigned long, unsigned long, int, pybind11::array_t<float, 17>&, pybind11::array_t<float, 17>&, pybind11::array_t<float, 17>&, pybind11::array_t<int, 16>&, pybind11::array_t<int, 16>&, pybind11::array_t<int, 16>&, pybind11::array_t<int, 16>&, float&)
00000000000e1aa0 T __Z22trace_estimator_slq_pyILb1Ef16PyLinearOperatorIfE13ThreadedRNG64I18Xoshiro256StarStarNSt3__113random_deviceEERKZ14_trace_param_fILb1EfS1_EvPKT1_RKN8pybind117array_tIT0_Li17EEEmimSD_mmSD_SD_SD_SD_mmiRSE_SH_SH_RNSC_IiLi16EEESJ_SJ_SJ_RSD_RKNSB_6kwargsEEUlfE0_EvSA_OT3_RT2_SG_mimSD_mmSD_SD_SD_SD_mmiSH_SH_SH_SJ_SJ_SJ_SJ_SK_
00000000000e77c0 T __Z22trace_estimator_slq_pyILb1Ef16PyLinearOperatorIfE13ThreadedRNG64I18Xoshiro256StarStarNSt3__113random_deviceEERKZ14_trace_param_fILb1EfS1_EvPKT1_RKN8pybind117array_tIT0_Li17EEEmimSD_mmSD_SD_SD_SD_mmiRSE_SH_SH_RNSC_IiLi16EEESJ_SJ_SJ_RSD_RKNSB_6kwargsEEUlfE1_EvSA_OT3_RT2_SG_mimSD_mmSD_SD_SD_SD_mmiSH_SH_SH_SJ_SJ_SJ_SJ_SK_
00000000000dc190 T __Z22trace_estimator_slq_pyILb1Ef16PyLinearOperatorIfE13ThreadedRNG64I18Xoshiro256StarStarNSt3__113random_deviceEERKZ14_trace_param_fILb1EfS1_EvPKT1_RKN8pybind117array_tIT0_Li17EEEmimSD_mmSD_SD_SD_SD_mmiRSE_SH_SH_RNSC_IiLi16EEESJ_SJ_SJ_RSD_RKNSB_6kwargsEEUlfE_EvSA_OT3_RT2_SG_mimSD_mmSD_SD_SD_SD_mmiSH_SH_SH_SJ_SJ_SJ_SJ_SK_
00000000000d61e0 T void trace_estimator_slq_py<true, float, PyLinearOperator<float>, ThreadedRNG64<pcg_detail::engine<unsigned long long, unsigned __int128, pcg_detail::xsl_rr_mixin<unsigned long long, unsigned __int128>, false, pcg_detail::specific_stream<unsigned __int128>, pcg_detail::default_multiplier<unsigned __int128> >, std::__1::random_device>, std::__1::identity const&>(PyLinearOperator<float> const*, std::__1::identity const&, ThreadedRNG64<pcg_detail::engine<unsigned long long, unsigned __int128, pcg_detail::xsl_rr_mixin<unsigned long long, unsigned __int128>, false, pcg_detail::specific_stream<unsigned __int128>, pcg_detail::default_multiplier<unsigned __int128> >, std::__1::random_device>&, pybind11::array_t<float, 17> const&, unsigned long, int, unsigned long, float, unsigned long, unsigned long, float, float, float, float, unsigned long, unsigned long, int, pybind11::array_t<float, 17>&, pybind11::array_t<float, 17>&, pybind11::array_t<float, 17>&, pybind11::array_t<int, 16>&, pybind11::array_t<int, 16>&, pybind11::array_t<int, 16>&, pybind11::array_t<int, 16>&, float&)
00000000000e2ac0 T __Z22trace_estimator_slq_pyILb1Ef16PyLinearOperatorIfE13ThreadedRNG64IN10pcg_detail6engineIyoNS3_12xsl_rr_mixinIyoEELb0ENS3_15specific_streamIoEENS3_18default_multiplierIoEEEENSt3__113random_deviceEERKZ14_trace_param_fILb1EfS1_EvPKT1_RKN8pybind117array_tIT0_Li17EEEmimSL_mmSL_SL_SL_SL_mmiRSM_SP_SP_RNSK_IiLi16EEESR_SR_SR_RSL_RKNSJ_6kwargsEEUlfE0_EvSI_OT3_RT2_SO_mimSL_mmSL_SL_SL_SL_mmiSP_SP_SP_SR_SR_SR_SR_SS_
00000000000e87e0 T __Z22trace_estimator_slq_pyILb1Ef16PyLinearOperatorIfE13ThreadedRNG64IN10pcg_detail6engineIyoNS3_12xsl_rr_mixinIyoEELb0ENS3_15specific_streamIoEENS3_18default_multiplierIoEEEENSt3__113random_deviceEERKZ14_trace_param_fILb1EfS1_EvPKT1_RKN8pybind117array_tIT0_Li17EEEmimSL_mmSL_SL_SL_SL_mmiRSM_SP_SP_RNSK_IiLi16EEESR_SR_SR_RSL_RKNSJ_6kwargsEEUlfE1_EvSI_OT3_RT2_SO_mimSL_mmSL_SL_SL_SL_mmiSP_SP_SP_SR_SR_SR_SR_SS_
00000000000dd1b0 T __Z22trace_estimator_slq_pyILb1Ef16PyLinearOperatorIfE13ThreadedRNG64IN10pcg_detail6engineIyoNS3_12xsl_rr_mixinIyoEELb0ENS3_15specific_streamIoEENS3_18default_multiplierIoEEEENSt3__113random_deviceEERKZ14_trace_param_fILb1EfS1_EvPKT1_RKN8pybind117array_tIT0_Li17EEEmimSL_mmSL_SL_SL_SL_mmiRSM_SP_SP_RNSK_IiLi16EEESR_SR_SR_RSL_RKNSJ_6kwargsEEUlfE_EvSI_OT3_RT2_SO_mimSL_mmSL_SL_SL_SL_mmiSP_SP_SP_SR_SR_SR_SR_SS_
00000000000d69f0 T void trace_estimator_slq_py<true, float, PyLinearOperator<float>, ThreadedRNG64<std::__1::mersenne_twister_engine<unsigned long long, 64ul, 312ul, 156ul, 31ul, 13043109905998158313ull, 29ul, 6148914691236517205ull, 17ul, 8202884508482404352ull, 37ul, 18444473444759240704ull, 43ul, 6364136223846793005ull>, std::__1::random_device>, std::__1::identity const&>(PyLinearOperator<float> const*, std::__1::identity const&, ThreadedRNG64<std::__1::mersenne_twister_engine<unsigned long long, 64ul, 312ul, 156ul, 31ul, 13043109905998158313ull, 29ul, 6148914691236517205ull, 17ul, 8202884508482404352ull, 37ul, 18444473444759240704ull, 43ul, 6364136223846793005ull>, std::__1::random_device>&, pybind11::array_t<float, 17> const&, unsigned long, int, unsigned long, float, unsigned long, unsigned long, float, float, float, float, unsigned long, unsigned long, int, pybind11::array_t<float, 17>&, pybind11::array_t<float, 17>&, pybind11::array_t<float, 17>&, pybind11::array_t<int, 16>&, pybind11::array_t<int, 16>&, pybind11::array_t<int, 16>&, pybind11::array_t<int, 16>&, float&)
00000000000e32d0 T __Z22trace_estimator_slq_pyILb1Ef16PyLinearOperatorIfE13ThreadedRNG64INSt3__123mersenne_twister_engineIyLm64ELm312ELm156ELm31ELy13043109905998158313ELm29ELy6148914691236517205ELm17ELy8202884508482404352ELm37ELy18444473444759240704ELm43ELy6364136223846793005EEENS3_13random_deviceEERKZ14_trace_param_fILb1EfS1_EvPKT1_RKN8pybind117array_tIT0_Li17EEEmimSE_mmSE_SE_SE_SE_mmiRSF_SI_SI_RNSD_IiLi16EEESK_SK_SK_RSE_RKNSC_6kwargsEEUlfE0_EvSB_OT3_RT2_SH_mimSE_mmSE_SE_SE_SE_mmiSI_SI_SI_SK_SK_SK_SK_SL_
00000000000e8ff0 T __Z22trace_estimator_slq_pyILb1Ef16PyLinearOperatorIfE13ThreadedRNG64INSt3__123mersenne_twister_engineIyLm64ELm312ELm156ELm31ELy13043109905998158313ELm29ELy6148914691236517205ELm17ELy8202884508482404352ELm37ELy18444473444759240704ELm43ELy6364136223846793005EEENS3_13random_deviceEERKZ14_trace_param_fILb1EfS1_EvPKT1_RKN8pybind117array_tIT0_Li17EEEmimSE_mmSE_SE_SE_SE_mmiRSF_SI_SI_RNSD_IiLi16EEESK_SK_SK_RSE_RKNSC_6kwargsEEUlfE1_EvSB_OT3_RT2_SH_mimSE_mmSE_SE_SE_SE_mmiSI_SI_SI_SK_SK_SK_SK_SL_
00000000000dd9c0 T __Z22trace_estimator_slq_pyILb1Ef16PyLinearOperatorIfE13ThreadedRNG64INSt3__123mersenne_twister_engineIyLm64ELm312ELm156ELm31ELy13043109905998158313ELm29ELy6148914691236517205ELm17ELy8202884508482404352ELm37ELy18444473444759240704ELm43ELy6364136223846793005EEENS3_13random_deviceEERKZ14_trace_param_fILb1EfS1_EvPKT1_RKN8pybind117array_tIT0_Li17EEEmimSE_mmSE_SE_SE_SE_mmiRSF_SI_SI_RNSD_IiLi16EEESK_SK_SK_RSE_RKNSC_6kwargsEEUlfE_EvSB_OT3_RT2_SH_mimSE_mmSE_SE_SE_SE_mmiSI_SI_SI_SK_SK_SK_SK_SL_
00000000000d59d0 T void trace_estimator_slq_py<true, float, PyLinearOperator<float>, ThreadedRNG64<std::__1::linear_congruential_engine<unsigned long long, 6364136223846793005ull, 1442695040888963407ull, 0ull>, std::__1::random_device>, std::__1::identity const&>(PyLinearOperator<float> const*, std::__1::identity const&, ThreadedRNG64<std::__1::linear_congruential_engine<unsigned long long, 6364136223846793005ull, 1442695040888963407ull, 0ull>, std::__1::random_device>&, pybind11::array_t<float, 17> const&, unsigned long, int, unsigned long, float, unsigned long, unsigned long, float, float, float, float, unsigned long, unsigned long, int, pybind11::array_t<float, 17>&, pybind11::array_t<float, 17>&, pybind11::array_t<float, 17>&, pybind11::array_t<int, 16>&, pybind11::array_t<int, 16>&, pybind11::array_t<int, 16>&, pybind11::array_t<int, 16>&, float&)
00000000000e22b0 T __Z22trace_estimator_slq_pyILb1Ef16PyLinearOperatorIfE13ThreadedRNG64INSt3__126linear_congruential_engineIyLy6364136223846793005ELy1442695040888963407ELy0EEENS3_13random_deviceEERKZ14_trace_param_fILb1EfS1_EvPKT1_RKN8pybind117array_tIT0_Li17EEEmimSE_mmSE_SE_SE_SE_mmiRSF_SI_SI_RNSD_IiLi16EEESK_SK_SK_RSE_RKNSC_6kwargsEEUlfE0_EvSB_OT3_RT2_SH_mimSE_mmSE_SE_SE_SE_mmiSI_SI_SI_SK_SK_SK_SK_SL_
00000000000e7fd0 T __Z22trace_estimator_slq_pyILb1Ef16PyLinearOperatorIfE13ThreadedRNG64INSt3__126linear_congruential_engineIyLy6364136223846793005ELy1442695040888963407ELy0EEENS3_13random_deviceEERKZ14_trace_param_fILb1EfS1_EvPKT1_RKN8pybind117array_tIT0_Li17EEEmimSE_mmSE_SE_SE_SE_mmiRSF_SI_SI_RNSD_IiLi16EEESK_SK_SK_RSE_RKNSC_6kwargsEEUlfE1_EvSB_OT3_RT2_SH_mimSE_mmSE_SE_SE_SE_mmiSI_SI_SI_SK_SK_SK_SK_SL_
00000000000dc9a0 T __Z22trace_estimator_slq_pyILb1Ef16PyLinearOperatorIfE13ThreadedRNG64INSt3__126linear_congruential_engineIyLy6364136223846793005ELy1442695040888963407ELy0EEENS3_13random_deviceEERKZ14_trace_param_fILb1EfS1_EvPKT1_RKN8pybind117array_tIT0_Li17EEEmimSE_mmSE_SE_SE_SE_mmiRSF_SI_SI_RNSD_IiLi16EEESK_SK_SK_RSE_RKNSC_6kwargsEEUlfE_EvSB_OT3_RT2_SH_mimSE_mmSE_SE_SE_SE_mmiSI_SI_SI_SK_SK_SK_SK_SL_
000000000009ffe0 T void trace_estimator_slq_py<true, float, DenseEigenLinearOperator<float>, ThreadedRNG64<SplitMix64, std::__1::random_device>, std::__1::identity const&>(DenseEigenLinearOperator<float> const*, std::__1::identity const&, ThreadedRNG64<SplitMix64, std::__1::random_device>&, pybind11::array_t<float, 17> const&, unsigned long, int, unsigned long, float, unsigned long, unsigned long, float, float, float, float, unsigned long, unsigned long, int, pybind11::array_t<float, 17>&, pybind11::array_t<float, 17>&, pybind11::array_t<float, 17>&, pybind11::array_t<int, 16>&, pybind11::array_t<int, 16>&, pybind11::array_t<int, 16>&, pybind11::array_t<int, 16>&, float&)
00000000000aca60 T __Z22trace_estimator_slq_pyILb1Ef24DenseEigenLinearOperatorIfE13ThreadedRNG64I10SplitMix64NSt3__113random_deviceEERKZ14_trace_param_fILb1EfS1_EvPKT1_RKN8pybind117array_tIT0_Li17EEEmimSD_mmSD_SD_SD_SD_mmiRSE_SH_SH_RNSC_IiLi16EEESJ_SJ_SJ_RSD_RKNSB_6kwargsEEUlfE0_EvSA_OT3_RT2_SG_mimSD_mmSD_SD_SD_SD_mmiSH_SH_SH_SJ_SJ_SJ_SJ_SK_
00000000000b26e0 T __Z22trace_estimator_slq_pyILb1Ef24DenseEigenLinearOperatorIfE13ThreadedRNG64I10SplitMix64NSt3__113random_deviceEERKZ14_trace_param_fILb1EfS1_EvPKT1_RKN8pybind117array_tIT0_Li17EEEmimSD_mmSD_SD_SD_SD_mmiRSE_SH_SH_RNSC_IiLi16EEESJ_SJ_SJ_RSD_RKNSB_6kwargsEEUlfE1_EvSA_OT3_RT2_SG_mimSD_mmSD_SD_SD_SD_mmiSH_SH_SH_SJ_SJ_SJ_SJ_SK_
00000000000a71a0 T __Z22trace_estimator_slq_pyILb1Ef24DenseEigenLinearOperatorIfE13ThreadedRNG64I10SplitMix64NSt3__113random_deviceEERKZ14_trace_param_fILb1EfS1_EvPKT1_RKN8pybind117array_tIT0_Li17EEEmimSD_mmSD_SD_SD_SD_mmiRSE_SH_SH_RNSC_IiLi16EEESJ_SJ_SJ_RSD_RKNSB_6kwargsEEUlfE_EvSA_OT3_RT2_SG_mimSD_mmSD_SD_SD_SD_mmiSH_SH_SH_SJ_SJ_SJ_SJ_SK_
00000000000a07f0 T void trace_estimator_slq_py<true, float, DenseEigenLinearOperator<float>, ThreadedRNG64<Xoshiro256StarStar, std::__1::random_device>, std::__1::identity const&>(DenseEigenLinearOperator<float> const*, std::__1::identity const&, ThreadedRNG64<Xoshiro256StarStar, std::__1::random_device>&, pybind11::array_t<float, 17> const&, unsigned long, int, unsigned long, float, unsigned long, unsigned long, float, float, float, float, unsigned long, unsigned long, int, pybind11::array_t<float, 17>&, pybind11::array_t<float, 17>&, pybind11::array_t<float, 17>&, pybind11::array_t<int, 16>&, pybind11::array_t<int, 16>&, pybind11::array_t<int, 16>&, pybind11::array_t<int, 16>&, float&)
00000000000ad270 T __Z22trace_estimator_slq_pyILb1Ef24DenseEigenLinearOperatorIfE13ThreadedRNG64I18Xoshiro256StarStarNSt3__113random_deviceEERKZ14_trace_param_fILb1EfS1_EvPKT1_RKN8pybind117array_tIT0_Li17EEEmimSD_mmSD_SD_SD_SD_mmiRSE_SH_SH_RNSC_IiLi16EEESJ_SJ_SJ_RSD_RKNSB_6kwargsEEUlfE0_EvSA_OT3_RT2_SG_mimSD_mmSD_SD_SD_SD_mmiSH_SH_SH_SJ_SJ_SJ_SJ_SK_
00000000000b2ef0 T __Z22trace_estimator_slq_pyILb1Ef24DenseEigenLinearOperatorIfE13ThreadedRNG64I18Xoshiro256StarStarNSt3__113random_deviceEERKZ14_trace_param_fILb1EfS1_EvPKT1_RKN8pybind117array_tIT0_Li17EEEmimSD_mmSD_SD_SD_SD_mmiRSE_SH_SH_RNSC_IiLi16EEESJ_SJ_SJ_RSD_RKNSB_6kwargsEEUlfE1_EvSA_OT3_RT2_SG_mimSD_mmSD_SD_SD_SD_mmiSH_SH_SH_SJ_SJ_SJ_SJ_SK_
00000000000a79b0 T __Z22trace_estimator_slq_pyILb1Ef24DenseEigenLinearOperatorIfE13ThreadedRNG64I18Xoshiro256StarStarNSt3__113random_deviceEERKZ14_trace_param_fILb1EfS1_EvPKT1_RKN8pybind117array_tIT0_Li17EEEmimSD_mmSD_SD_SD_SD_mmiRSE_SH_SH_RNSC_IiLi16EEESJ_SJ_SJ_RSD_RKNSB_6kwargsEEUlfE_EvSA_OT3_RT2_SG_mimSD_mmSD_SD_SD_SD_mmiSH_SH_SH_SJ_SJ_SJ_SJ_SK_
00000000000a1810 T void trace_estimator_slq_py<true, float, DenseEigenLinearOperator<float>, ThreadedRNG64<pcg_detail::engine<unsigned long long, unsigned __int128, pcg_detail::xsl_rr_mixin<unsigned long long, unsigned __int128>, false, pcg_detail::specific_stream<unsigned __int128>, pcg_detail::default_multiplier<unsigned __int128> >, std::__1::random_device>, std::__1::identity const&>(DenseEigenLinearOperator<float> const*, std::__1::identity const&, ThreadedRNG64<pcg_detail::engine<unsigned long long, unsigned __int128, pcg_detail::xsl_rr_mixin<unsigned long long, unsigned __int128>, false, pcg_detail::specific_stream<unsigned __int128>, pcg_detail::default_multiplier<unsigned __int128> >, std::__1::random_device>&, pybind11::array_t<float, 17> const&, unsigned long, int, unsigned long, float, unsigned long, unsigned long, float, float, float, float, unsigned long, unsigned long, int, pybind11::array_t<float, 17>&, pybind11::array_t<float, 17>&, pybind11::array_t<float, 17>&, pybind11::array_t<int, 16>&, pybind11::array_t<int, 16>&, pybind11::array_t<int, 16>&, pybind11::array_t<int, 16>&, float&)
00000000000ae290 T __Z22trace_estimator_slq_pyILb1Ef24DenseEigenLinearOperatorIfE13ThreadedRNG64IN10pcg_detail6engineIyoNS3_12xsl_rr_mixinIyoEELb0ENS3_15specific_streamIoEENS3_18default_multiplierIoEEEENSt3__113random_deviceEERKZ14_trace_param_fILb1EfS1_EvPKT1_RKN8pybind117array_tIT0_Li17EEEmimSL_mmSL_SL_SL_SL_mmiRSM_SP_SP_RNSK_IiLi16EEESR_SR_SR_RSL_RKNSJ_6kwargsEEUlfE0_EvSI_OT3_RT2_SO_mimSL_mmSL_SL_SL_SL_mmiSP_SP_SP_SR_SR_SR_SR_SS_
00000000000b3f10 T __Z22trace_estimator_slq_pyILb1Ef24DenseEigenLinearOperatorIfE13ThreadedRNG64IN10pcg_detail6engineIyoNS3_12xsl_rr_mixinIyoEELb0ENS3_15specific_streamIoEENS3_18default_multiplierIoEEEENSt3__113random_deviceEERKZ14_trace_param_fILb1EfS1_EvPKT1_RKN8pybind117array_tIT0_Li17EEEmimSL_mmSL_SL_SL_SL_mmiRSM_SP_SP_RNSK_IiLi16EEESR_SR_SR_RSL_RKNSJ_6kwargsEEUlfE1_EvSI_OT3_RT2_SO_mimSL_mmSL_SL_SL_SL_mmiSP_SP_SP_SR_SR_SR_SR_SS_
00000000000a89d0 T __Z22trace_estimator_slq_pyILb1Ef24DenseEigenLinearOperatorIfE13ThreadedRNG64IN10pcg_detail6engineIyoNS3_12xsl_rr_mixinIyoEELb0ENS3_15specific_streamIoEENS3_18default_multiplierIoEEEENSt3__113random_deviceEERKZ14_trace_param_fILb1EfS1_EvPKT1_RKN8pybind117array_tIT0_Li17EEEmimSL_mmSL_SL_SL_SL_mmiRSM_SP_SP_RNSK_IiLi16EEESR_SR_SR_RSL_RKNSJ_6kwargsEEUlfE_EvSI_OT3_RT2_SO_mimSL_mmSL_SL_SL_SL_mmiSP_SP_SP_SR_SR_SR_SR_SS_
00000000000a2020 T void trace_estimator_slq_py<true, float, DenseEigenLinearOperator<float>, ThreadedRNG64<std::__1::mersenne_twister_engine<unsigned long long, 64ul, 312ul, 156ul, 31ul, 13043109905998158313ull, 29ul, 6148914691236517205ull, 17ul, 8202884508482404352ull, 37ul, 18444473444759240704ull, 43ul, 6364136223846793005ull>, std::__1::random_device>, std::__1::identity const&>(DenseEigenLinearOperator<float> const*, std::__1::identity const&, ThreadedRNG64<std::__1::mersenne_twister_engine<unsigned long long, 64ul, 312ul, 156ul, 31ul, 13043109905998158313ull, 29ul, 6148914691236517205ull, 17ul, 8202884508482404352ull, 37ul, 18444473444759240704ull, 43ul, 6364136223846793005ull>, std::__1::random_device>&, pybind11::array_t<float, 17> const&, unsigned long, int, unsigned long, float, unsigned long, unsigned long, float, float, float, float, unsigned long, unsigned long, int, pybind11::array_t<float, 17>&, pybind11::array_t<float, 17>&, pybind11::array_t<float, 17>&, pybind11::array_t<int, 16>&, pybind11::array_t<int, 16>&, pybind11::array_t<int, 16>&, pybind11::array_t<int, 16>&, float&)
00000000000aeaa0 T __Z22trace_estimator_slq_pyILb1Ef24DenseEigenLinearOperatorIfE13ThreadedRNG64INSt3__123mersenne_twister_engineIyLm64ELm312ELm156ELm31ELy13043109905998158313ELm29ELy6148914691236517205ELm17ELy8202884508482404352ELm37ELy18444473444759240704ELm43ELy6364136223846793005EEENS3_13random_deviceEERKZ14_trace_param_fILb1EfS1_EvPKT1_RKN8pybind117array_tIT0_Li17EEEmimSE_mmSE_SE_SE_SE_mmiRSF_SI_SI_RNSD_IiLi16EEESK_SK_SK_RSE_RKNSC_6kwargsEEUlfE0_EvSB_OT3_RT2_SH_mimSE_mmSE_SE_SE_SE_mmiSI_SI_SI_SK_SK_SK_SK_SL_
00000000000b4720 T __Z22trace_estimator_slq_pyILb1Ef24DenseEigenLinearOperatorIfE13ThreadedRNG64INSt3__123mersenne_twister_engineIyLm64ELm312ELm156ELm31ELy13043109905998158313ELm29ELy6148914691236517205ELm17ELy8202884508482404352ELm37ELy18444473444759240704ELm43ELy6364136223846793005EEENS3_13random_deviceEERKZ14_trace_param_fILb1EfS1_EvPKT1_RKN8pybind117array_tIT0_Li17EEEmimSE_mmSE_SE_SE_SE_mmiRSF_SI_SI_RNSD_IiLi16EEESK_SK_SK_RSE_RKNSC_6kwargsEEUlfE1_EvSB_OT3_RT2_SH_mimSE_mmSE_SE_SE_SE_mmiSI_SI_SI_SK_SK_SK_SK_SL_
00000000000a91e0 T __Z22trace_estimator_slq_pyILb1Ef24DenseEigenLinearOperatorIfE13ThreadedRNG64INSt3__123mersenne_twister_engineIyLm64ELm312ELm156ELm31ELy13043109905998158313ELm29ELy6148914691236517205ELm17ELy8202884508482404352ELm37ELy18444473444759240704ELm43ELy6364136223846793005EEENS3_13random_deviceEERKZ14_trace_param_fILb1EfS1_EvPKT1_RKN8pybind117array_tIT0_Li17EEEmimSE_mmSE_SE_SE_SE_mmiRSF_SI_SI_RNSD_IiLi16EEESK_SK_SK_RSE_RKNSC_6kwargsEEUlfE_EvSB_OT3_RT2_SH_mimSE_mmSE_SE_SE_SE_mmiSI_SI_SI_SK_SK_SK_SK_SL_
00000000000a1000 T void trace_estimator_slq_py<true, float, DenseEigenLinearOperator<float>, ThreadedRNG64<std::__1::linear_congruential_engine<unsigned long long, 6364136223846793005ull, 1442695040888963407ull, 0ull>, std::__1::random_device>, std::__1::identity const&>(DenseEigenLinearOperator<float> const*, std::__1::identity const&, ThreadedRNG64<std::__1::linear_congruential_engine<unsigned long long, 6364136223846793005ull, 1442695040888963407ull, 0ull>, std::__1::random_device>&, pybind11::array_t<float, 17> const&, unsigned long, int, unsigned long, float, unsigned long, unsigned long, float, float, float, float, unsigned long, unsigned long, int, pybind11::array_t<float, 17>&, pybind11::array_t<float, 17>&, pybind11::array_t<float, 17>&, pybind11::array_t<int, 16>&, pybind11::array_t<int, 16>&, pybind11::array_t<int, 16>&, pybind11::array_t<int, 16>&, float&)
00000000000ada80 T __Z22trace_estimator_slq_pyILb1Ef24DenseEigenLinearOperatorIfE13ThreadedRNG64INSt3__126linear_congruential_engineIyLy6364136223846793005ELy1442695040888963407ELy0EEENS3_13random_deviceEERKZ14_trace_param_fILb1EfS1_EvPKT1_RKN8pybind117array_tIT0_Li17EEEmimSE_mmSE_SE_SE_SE_mmiRSF_SI_SI_RNSD_IiLi16EEESK_SK_SK_RSE_RKNSC_6kwargsEEUlfE0_EvSB_OT3_RT2_SH_mimSE_mmSE_SE_SE_SE_mmiSI_SI_SI_SK_SK_SK_SK_SL_
00000000000b3700 T __Z22trace_estimator_slq_pyILb1Ef24DenseEigenLinearOperatorIfE13ThreadedRNG64INSt3__126linear_congruential_engineIyLy6364136223846793005ELy1442695040888963407ELy0EEENS3_13random_deviceEERKZ14_trace_param_fILb1EfS1_EvPKT1_RKN8pybind117array_tIT0_Li17EEEmimSE_mmSE_SE_SE_SE_mmiRSF_SI_SI_RNSD_IiLi16EEESK_SK_SK_RSE_RKNSC_6kwargsEEUlfE1_EvSB_OT3_RT2_SH_mimSE_mmSE_SE_SE_SE_mmiSI_SI_SI_SK_SK_SK_SK_SL_
00000000000a81c0 T __Z22trace_estimator_slq_pyILb1Ef24DenseEigenLinearOperatorIfE13ThreadedRNG64INSt3__126linear_congruential_engineIyLy6364136223846793005ELy1442695040888963407ELy0EEENS3_13random_deviceEERKZ14_trace_param_fILb1EfS1_EvPKT1_RKN8pybind117array_tIT0_Li17EEEmimSE_mmSE_SE_SE_SE_mmiRSF_SI_SI_RNSD_IiLi16EEESK_SK_SK_RSE_RKNSC_6kwargsEEUlfE_EvSB_OT3_RT2_SH_mimSE_mmSE_SE_SE_SE_mmiSI_SI_SI_SK_SK_SK_SK_SL_
000000000006d460 T void trace_estimator_slq_py<true, float, SparseEigenLinearOperator<float>, ThreadedRNG64<SplitMix64, std::__1::random_device>, std::__1::identity const&>(SparseEigenLinearOperator<float> const*, std::__1::identity const&, ThreadedRNG64<SplitMix64, std::__1::random_device>&, pybind11::array_t<float, 17> const&, unsigned long, int, unsigned long, float, unsigned long, unsigned long, float, float, float, float, unsigned long, unsigned long, int, pybind11::array_t<float, 17>&, pybind11::array_t<float, 17>&, pybind11::array_t<float, 17>&, pybind11::array_t<int, 16>&, pybind11::array_t<int, 16>&, pybind11::array_t<int, 16>&, pybind11::array_t<int, 16>&, float&)
00000000000792c0 T __Z22trace_estimator_slq_pyILb1Ef25SparseEigenLinearOperatorIfE13ThreadedRNG64I10SplitMix64NSt3__113random_deviceEERKZ14_trace_param_fILb1EfS1_EvPKT1_RKN8pybind117array_tIT0_Li17EEEmimSD_mmSD_SD_SD_SD_mmiRSE_SH_SH_RNSC_IiLi16EEESJ_SJ_SJ_RSD_RKNSB_6kwargsEEUlfE0_EvSA_OT3_RT2_SG_mimSD_mmSD_SD_SD_SD_mmiSH_SH_SH_SJ_SJ_SJ_SJ_SK_
000000000007ef40 T __Z22trace_estimator_slq_pyILb1Ef25SparseEigenLinearOperatorIfE13ThreadedRNG64I10SplitMix64NSt3__113random_deviceEERKZ14_trace_param_fILb1EfS1_EvPKT1_RKN8pybind117array_tIT0_Li17EEEmimSD_mmSD_SD_SD_SD_mmiRSE_SH_SH_RNSC_IiLi16EEESJ_SJ_SJ_RSD_RKNSB_6kwargsEEUlfE1_EvSA_OT3_RT2_SG_mimSD_mmSD_SD_SD_SD_mmiSH_SH_SH_SJ_SJ_SJ_SJ_SK_
0000000000073a00 T __Z22trace_estimator_slq_pyILb1Ef25SparseEigenLinearOperatorIfE13ThreadedRNG64I10SplitMix64NSt3__113random_deviceEERKZ14_trace_param_fILb1EfS1_EvPKT1_RKN8pybind117array_tIT0_Li17EEEmimSD_mmSD_SD_SD_SD_mmiRSE_SH_SH_RNSC_IiLi16EEESJ_SJ_SJ_RSD_RKNSB_6kwargsEEUlfE_EvSA_OT3_RT2_SG_mimSD_mmSD_SD_SD_SD_mmiSH_SH_SH_SJ_SJ_SJ_SJ_SK_
000000000006dc70 T void trace_estimator_slq_py<true, float, SparseEigenLinearOperator<float>, ThreadedRNG64<Xoshiro256StarStar, std::__1::random_device>, std::__1::identity const&>(SparseEigenLinearOperator<float> const*, std::__1::identity const&, ThreadedRNG64<Xoshiro256StarStar, std::__1::random_device>&, pybind11::array_t<float, 17> const&, unsigned long, int, unsigned long, float, unsigned long, unsigned long, float, float, float, float, unsigned long, unsigned long, int, pybind11::array_t<float, 17>&, pybind11::array_t<float, 17>&, pybind11::array_t<float, 17>&, pybind11::array_t<int, 16>&, pybind11::array_t<int, 16>&, pybind11::array_t<int, 16>&, pybind11::array_t<int, 16>&, float&)
0000000000079ad0 T __Z22trace_estimator_slq_pyILb1Ef25SparseEigenLinearOperatorIfE13ThreadedRNG64I18Xoshiro256StarStarNSt3__113random_deviceEERKZ14_trace_param_fILb1EfS1_EvPKT1_RKN8pybind117array_tIT0_Li17EEEmimSD_mmSD_SD_SD_SD_mmiRSE_SH_SH_RNSC_IiLi16EEESJ_SJ_SJ_RSD_RKNSB_6kwargsEEUlfE0_EvSA_OT3_RT2_SG_mimSD_mmSD_SD_SD_SD_mmiSH_SH_SH_SJ_SJ_SJ_SJ_SK_
000000000007f750 T __Z22trace_estimator_slq_pyILb1Ef25SparseEigenLinearOperatorIfE13ThreadedRNG64I18Xoshiro256StarStarNSt3__113random_deviceEERKZ14_trace_param_fILb1EfS1_EvPKT1_RKN8pybind117array_tIT0_Li17EEEmimSD_mmSD_SD_SD_SD_mmiRSE_SH_SH_RNSC_IiLi16EEESJ_SJ_SJ_RSD_RKNSB_6kwargsEEUlfE1_EvSA_OT3_RT2_SG_mimSD_mmSD_SD_SD_SD_mmiSH_SH_SH_SJ_SJ_SJ_SJ_SK_
0000000000074210 T __Z22trace_estimator_slq_pyILb1Ef25SparseEigenLinearOperatorIfE13ThreadedRNG64I18Xoshiro256StarStarNSt3__113random_deviceEERKZ14_trace_param_fILb1EfS1_EvPKT1_RKN8pybind117array_tIT0_Li17EEEmimSD_mmSD_SD_SD_SD_mmiRSE_SH_SH_RNSC_IiLi16EEESJ_SJ_SJ_RSD_RKNSB_6kwargsEEUlfE_EvSA_OT3_RT2_SG_mimSD_mmSD_SD_SD_SD_mmiSH_SH_SH_SJ_SJ_SJ_SJ_SK_
000000000006ec90 T void trace_estimator_slq_py<true, float, SparseEigenLinearOperator<float>, ThreadedRNG64<pcg_detail::engine<unsigned long long, unsigned __int128, pcg_detail::xsl_rr_mixin<unsigned long long, unsigned __int128>, false, pcg_detail::specific_stream<unsigned __int128>, pcg_detail::default_multiplier<unsigned __int128> >, std::__1::random_device>, std::__1::identity const&>(SparseEigenLinearOperator<float> const*, std::__1::identity const&, ThreadedRNG64<pcg_detail::engine<unsigned long long, unsigned __int128, pcg_detail::xsl_rr_mixin<unsigned long long, unsigned __int128>, false, pcg_detail::specific_stream<unsigned __int128>, pcg_detail::default_multiplier<unsigned __int128> >, std::__1::random_device>&, pybind11::array_t<float, 17> const&, unsigned long, int, unsigned long, float, unsigned long, unsigned long, float, float, float, float, unsigned long, unsigned long, int, pybind11::array_t<float, 17>&, pybind11::array_t<float, 17>&, pybind11::array_t<float, 17>&, pybind11::array_t<int, 16>&, pybind11::array_t<int, 16>&, pybind11::array_t<int, 16>&, pybind11::array_t<int, 16>&, float&)
000000000007aaf0 T __Z22trace_estimator_slq_pyILb1Ef25SparseEigenLinearOperatorIfE13ThreadedRNG64IN10pcg_detail6engineIyoNS3_12xsl_rr_mixinIyoEELb0ENS3_15specific_streamIoEENS3_18default_multiplierIoEEEENSt3__113random_deviceEERKZ14_trace_param_fILb1EfS1_EvPKT1_RKN8pybind117array_tIT0_Li17EEEmimSL_mmSL_SL_SL_SL_mmiRSM_SP_SP_RNSK_IiLi16EEESR_SR_SR_RSL_RKNSJ_6kwargsEEUlfE0_EvSI_OT3_RT2_SO_mimSL_mmSL_SL_SL_SL_mmiSP_SP_SP_SR_SR_SR_SR_SS_
0000000000080770 T __Z22trace_estimator_slq_pyILb1Ef25SparseEigenLinearOperatorIfE13ThreadedRNG64IN10pcg_detail6engineIyoNS3_12xsl_rr_mixinIyoEELb0ENS3_15specific_streamIoEENS3_18default_multiplierIoEEEENSt3__113random_deviceEERKZ14_trace_param_fILb1EfS1_EvPKT1_RKN8pybind117array_tIT0_Li17EEEmimSL_mmSL_SL_SL_SL_mmiRSM_SP_SP_RNSK_IiLi16EEESR_SR_SR_RSL_RKNSJ_6kwargsEEUlfE1_EvSI_OT3_RT2_SO_mimSL_mmSL_SL_SL_SL_mmiSP_SP_SP_SR_SR_SR_SR_SS_
0000000000075230 T __Z22trace_estimator_slq_pyILb1Ef25SparseEigenLinearOperatorIfE13ThreadedRNG64IN10pcg_detail6engineIyoNS3_12xsl_rr_mixinIyoEELb0ENS3_15specific_streamIoEENS3_18default_multiplierIoEEEENSt3__113random_deviceEERKZ14_trace_param_fILb1EfS1_EvPKT1_RKN8pybind117array_tIT0_Li17EEEmimSL_mmSL_SL_SL_SL_mmiRSM_SP_SP_RNSK_IiLi16EEESR_SR_SR_RSL_RKNSJ_6kwargsEEUlfE_EvSI_OT3_RT2_SO_mimSL_mmSL_SL_SL_SL_mmiSP_SP_SP_SR_SR_SR_SR_SS_
000000000006f4a0 T void trace_estimator_slq_py<true, float, SparseEigenLinearOperator<float>, ThreadedRNG64<std::__1::mersenne_twister_engine<unsigned long long, 64ul, 312ul, 156ul, 31ul, 13043109905998158313ull, 29ul, 6148914691236517205ull, 17ul, 8202884508482404352ull, 37ul, 18444473444759240704ull, 43ul, 6364136223846793005ull>, std::__1::random_device>, std::__1::identity const&>(SparseEigenLinearOperator<float> const*, std::__1::identity const&, ThreadedRNG64<std::__1::mersenne_twister_engine<unsigned long long, 64ul, 312ul, 156ul, 31ul, 13043109905998158313ull, 29ul, 6148914691236517205ull, 17ul, 8202884508482404352ull, 37ul, 18444473444759240704ull, 43ul, 6364136223846793005ull>, std::__1::random_device>&, pybind11::array_t<float, 17> const&, unsigned long, int, unsigned long, float, unsigned long, unsigned long, float, float, float, float, unsigned long, unsigned long, int, pybind11::array_t<float, 17>&, pybind11::array_t<float, 17>&, pybind11::array_t<float, 17>&, pybind11::array_t<int, 16>&, pybind11::array_t<int, 16>&, pybind11::array_t<int, 16>&, pybind11::array_t<int, 16>&, float&)
000000000007b300 T __Z22trace_estimator_slq_pyILb1Ef25SparseEigenLinearOperatorIfE13ThreadedRNG64INSt3__123mersenne_twister_engineIyLm64ELm312ELm156ELm31ELy13043109905998158313ELm29ELy6148914691236517205ELm17ELy8202884508482404352ELm37ELy18444473444759240704ELm43ELy6364136223846793005EEENS3_13random_deviceEERKZ14_trace_param_fILb1EfS1_EvPKT1_RKN8pybind117array_tIT0_Li17EEEmimSE_mmSE_SE_SE_SE_mmiRSF_SI_SI_RNSD_IiLi16EEESK_SK_SK_RSE_RKNSC_6kwargsEEUlfE0_EvSB_OT3_RT2_SH_mimSE_mmSE_SE_SE_SE_mmiSI_SI_SI_SK_SK_SK_SK_SL_
0000000000080f80 T __Z22trace_estimator_slq_pyILb1Ef25SparseEigenLinearOperatorIfE13ThreadedRNG64INSt3__123mersenne_twister_engineIyLm64ELm312ELm156ELm31ELy13043109905998158313ELm29ELy6148914691236517205ELm17ELy8202884508482404352ELm37ELy18444473444759240704ELm43ELy6364136223846793005EEENS3_13random_deviceEERKZ14_trace_param_fILb1EfS1_EvPKT1_RKN8pybind117array_tIT0_Li17EEEmimSE_mmSE_SE_SE_SE_mmiRSF_SI_SI_RNSD_IiLi16EEESK_SK_SK_RSE_RKNSC_6kwargsEEUlfE1_EvSB_OT3_RT2_SH_mimSE_mmSE_SE_SE_SE_mmiSI_SI_SI_SK_SK_SK_SK_SL_
0000000000075a40 T __Z22trace_estimator_slq_pyILb1Ef25SparseEigenLinearOperatorIfE13ThreadedRNG64INSt3__123mersenne_twister_engineIyLm64ELm312ELm156ELm31ELy13043109905998158313ELm29ELy6148914691236517205ELm17ELy8202884508482404352ELm37ELy18444473444759240704ELm43ELy6364136223846793005EEENS3_13random_deviceEERKZ14_trace_param_fILb1EfS1_EvPKT1_RKN8pybind117array_tIT0_Li17EEEmimSE_mmSE_SE_SE_SE_mmiRSF_SI_SI_RNSD_IiLi16EEESK_SK_SK_RSE_RKNSC_6kwargsEEUlfE_EvSB_OT3_RT2_SH_mimSE_mmSE_SE_SE_SE_mmiSI_SI_SI_SK_SK_SK_SK_SL_
000000000006e480 T void trace_estimator_slq_py<true, float, SparseEigenLinearOperator<float>, ThreadedRNG64<std::__1::linear_congruential_engine<unsigned long long, 6364136223846793005ull, 1442695040888963407ull, 0ull>, std::__1::random_device>, std::__1::identity const&>(SparseEigenLinearOperator<float> const*, std::__1::identity const&, ThreadedRNG64<std::__1::linear_congruential_engine<unsigned long long, 6364136223846793005ull, 1442695040888963407ull, 0ull>, std::__1::random_device>&, pybind11::array_t<float, 17> const&, unsigned long, int, unsigned long, float, unsigned long, unsigned long, float, float, float, float, unsigned long, unsigned long, int, pybind11::array_t<float, 17>&, pybind11::array_t<float, 17>&, pybind11::array_t<float, 17>&, pybind11::array_t<int, 16>&, pybind11::array_t<int, 16>&, pybind11::array_t<int, 16>&, pybind11::array_t<int, 16>&, float&)
000000000007a2e0 T __Z22trace_estimator_slq_pyILb1Ef25SparseEigenLinearOperatorIfE13ThreadedRNG64INSt3__126linear_congruential_engineIyLy6364136223846793005ELy1442695040888963407ELy0EEENS3_13random_deviceEERKZ14_trace_param_fILb1EfS1_EvPKT1_RKN8pybind117array_tIT0_Li17EEEmimSE_mmSE_SE_SE_SE_mmiRSF_SI_SI_RNSD_IiLi16EEESK_SK_SK_RSE_RKNSC_6kwargsEEUlfE0_EvSB_OT3_RT2_SH_mimSE_mmSE_SE_SE_SE_mmiSI_SI_SI_SK_SK_SK_SK_SL_
000000000007ff60 T __Z22trace_estimator_slq_pyILb1Ef25SparseEigenLinearOperatorIfE13ThreadedRNG64INSt3__126linear_congruential_engineIyLy6364136223846793005ELy1442695040888963407ELy0EEENS3_13random_deviceEERKZ14_trace_param_fILb1EfS1_EvPKT1_RKN8pybind117array_tIT0_Li17EEEmimSE_mmSE_SE_SE_SE_mmiRSF_SI_SI_RNSD_IiLi16EEESK_SK_SK_RSE_RKNSC_6kwargsEEUlfE1_EvSB_OT3_RT2_SH_mimSE_mmSE_SE_SE_SE_mmiSI_SI_SI_SK_SK_SK_SK_SL_
0000000000074a20 T __Z22trace_estimator_slq_pyILb1Ef25SparseEigenLinearOperatorIfE13ThreadedRNG64INSt3__126linear_congruential_engineIyLy6364136223846793005ELy1442695040888963407ELy0EEENS3_13random_deviceEERKZ14_trace_param_fILb1EfS1_EvPKT1_RKN8pybind117array_tIT0_Li17EEEmimSE_mmSE_SE_SE_SE_mmiRSF_SI_SI_RNSD_IiLi16EEESK_SK_SK_RSE_RKNSC_6kwargsEEUlfE_EvSB_OT3_RT2_SH_mimSE_mmSE_SE_SE_SE_mmiSI_SI_SI_SK_SK_SK_SK_SL_
00000000000f1d30 T int lanczos_tridiagonalization<double, PyLinearOperator<double> const>(PyLinearOperator<double> const*, double const*, int, int, double, int, double*, double*)
00000000000bdaa0 T int lanczos_tridiagonalization<double, DenseEigenLinearOperator<double> const>(DenseEigenLinearOperator<double> const*, double const*, int, int, double, int, double*, double*)
00000000000893d0 T int lanczos_tridiagonalization<double, SparseEigenLinearOperator<double> const>(SparseEigenLinearOperator<double> const*, double const*, int, int, double, int, double*, double*)
00000000000d81d0 T int lanczos_tridiagonalization<float, PyLinearOperator<float> const>(PyLinearOperator<float> const*, float const*, int, int, float, int, float*, float*)
00000000000a3290 T int lanczos_tridiagonalization<float, DenseEigenLinearOperator<float> const>(DenseEigenLinearOperator<float> const*, float const*, int, int, float, int, float*, float*)
0000000000070710 T int lanczos_tridiagonalization<float, SparseEigenLinearOperator<float> const>(SparseEigenLinearOperator<float> const*, float const*, int, int, float, int, float*, float*)
000000000004f970 T int golub_kahn_bidiagonalization<double, SparseEigenLinearOperator<double> const>(SparseEigenLinearOperator<double> const*, double const*, int, int, double, int, double*, double*)
000000000002a8b0 T int golub_kahn_bidiagonalization<float, SparseEigenLinearOperator<float> const>(SparseEigenLinearOperator<float> const*, float const*, int, int, float, int, float*, float*)
000000000004ec20 T void stochastic_lanczos_quadrature<false, double, SparseEigenLinearOperator<double> const, std::__1::identity const&, ThreadedRNG64<SplitMix64, std::__1::random_device> >(SparseEigenLinearOperator<double> const*, double const*, int, std::__1::identity const&, int, int, double, ThreadedRNG64<SplitMix64, std::__1::random_device>&, int, double*, int*, double*)
00000000000529c0 T void stochastic_lanczos_quadrature<false, double, SparseEigenLinearOperator<double> const, std::__1::identity const&, ThreadedRNG64<Xoshiro256StarStar, std::__1::random_device> >(SparseEigenLinearOperator<double> const*, double const*, int, std::__1::identity const&, int, int, double, ThreadedRNG64<Xoshiro256StarStar, std::__1::random_device>&, int, double*, int*, double*)
0000000000056120 T void stochastic_lanczos_quadrature<false, double, SparseEigenLinearOperator<double> const, std::__1::identity const&, ThreadedRNG64<pcg_detail::engine<unsigned long long, unsigned __int128, pcg_detail::xsl_rr_mixin<unsigned long long, unsigned __int128>, false, pcg_detail::specific_stream<unsigned __int128>, pcg_detail::default_multiplier<unsigned __int128> >, std::__1::random_device> >(SparseEigenLinearOperator<double> const*, double const*, int, std::__1::identity const&, int, int, double, ThreadedRNG64<pcg_detail::engine<unsigned long long, unsigned __int128, pcg_detail::xsl_rr_mixin<unsigned long long, unsigned __int128>, false, pcg_detail::specific_stream<unsigned __int128>, pcg_detail::default_multiplier<unsigned __int128> >, std::__1::random_device>&, int, double*, int*, double*)
0000000000057db0 T void stochastic_lanczos_quadrature<false, double, SparseEigenLinearOperator<double> const, std::__1::identity const&, ThreadedRNG64<std::__1::mersenne_twister_engine<unsigned long long, 64ul, 312ul, 156ul, 31ul, 13043109905998158313ull, 29ul, 6148914691236517205ull, 17ul, 8202884508482404352ull, 37ul, 18444473444759240704ull, 43ul, 6364136223846793005ull>, std::__1::random_device> >(SparseEigenLinearOperator<double> const*, double const*, int, std::__1::identity const&, int, int, double, ThreadedRNG64<std::__1::mersenne_twister_engine<unsigned long long, 64ul, 312ul, 156ul, 31ul, 13043109905998158313ull, 29ul, 6148914691236517205ull, 17ul, 8202884508482404352ull, 37ul, 18444473444759240704ull, 43ul, 6364136223846793005ull>, std::__1::random_device>&, int, double*, int*, double*)
00000000000545e0 T void stochastic_lanczos_quadrature<false, double, SparseEigenLinearOperator<double> const, std::__1::identity const&, ThreadedRNG64<std::__1::linear_congruential_engine<unsigned long long, 6364136223846793005ull, 1442695040888963407ull, 0ull>, std::__1::random_device> >(SparseEigenLinearOperator<double> const*, double const*, int, std::__1::identity const&, int, int, double, ThreadedRNG64<std::__1::linear_congruential_engine<unsigned long long, 6364136223846793005ull, 1442695040888963407ull, 0ull>, std::__1::random_device>&, int, double*, int*, double*)
0000000000061b90 T void stochastic_lanczos_quadrature<false, double, SparseEigenLinearOperator<double> const, void _trace_param_f<false, double, SparseEigenLinearOperator<double> >(SparseEigenLinearOperator<double> const*, pybind11::array_t<double, 17> const&, unsigned long, int, unsigned long, double, unsigned long, unsigned long, double, double, double, double, unsigned long, unsigned long, int, pybind11::array_t<double, 17>&, pybind11::array_t<double, 17>&, pybind11::array_t<double, 17>&, pybind11::array_t<int, 16>&, pybind11::array_t<int, 16>&, pybind11::array_t<int, 16>&, pybind11::array_t<int, 16>&, double&, pybind11::kwargs const&)::'lambda0'(double) const&, ThreadedRNG64<SplitMix64, std::__1::random_device> >(SparseEigenLinearOperator<double>*, double const*, int, void _trace_param_f<false, double, SparseEigenLinearOperator<double> >(SparseEigenLinearOperator<double> const*, pybind11::array_t<double, 17> const&, unsigned long, int, unsigned long, double, unsigned long, unsigned long, double, double, double, double, unsigned long, unsigned long, int, pybind11::array_t<double, 17>&, pybind11::array_t<double, 17>&, pybind11::array_t<double, 17>&, pybind11::array_t<int, 16>&, pybind11::array_t<int, 16>&, pybind11::array_t<int, 16>&, pybind11::array_t<int, 16>&, double&, pybind11::kwargs const&)::'lambda0'(double) const&, int, int, double, ThreadedRNG64<SplitMix64, std::__1::random_device>&, int, double*, int*, double*)
0000000000062890 T void stochastic_lanczos_quadrature<false, double, SparseEigenLinearOperator<double> const, void _trace_param_f<false, double, SparseEigenLinearOperator<double> >(SparseEigenLinearOperator<double> const*, pybind11::array_t<double, 17> const&, unsigned long, int, unsigned long, double, unsigned long, unsigned long, double, double, double, double, unsigned long, unsigned long, int, pybind11::array_t<double, 17>&, pybind11::array_t<double, 17>&, pybind11::array_t<double, 17>&, pybind11::array_t<int, 16>&, pybind11::array_t<int, 16>&, pybind11::array_t<int, 16>&, pybind11::array_t<int, 16>&, double&, pybind11::kwargs const&)::'lambda0'(double) const&, ThreadedRNG64<Xoshiro256StarStar, std::__1::random_device> >(SparseEigenLinearOperator<double>*, double const*, int, void _trace_param_f<false, double, SparseEigenLinearOperator<double> >(SparseEigenLinearOperator<double> const*, pybind11::array_t<double, 17> const&, unsigned long, int, unsigned long, double, unsigned long, unsigned long, double, double, double, double, unsigned long, unsigned long, int, pybind11::array_t<double, 17>&, pybind11::array_t<double, 17>&, pybind11::array_t<double, 17>&, pybind11::array_t<int, 16>&, pybind11::array_t<int, 16>&, pybind11::array_t<int, 16>&, pybind11::array_t<int, 16>&, double&, pybind11::kwargs const&)::'lambda0'(double) const&, int, int, double, ThreadedRNG64<Xoshiro256StarStar, std::__1::random_device>&, int, double*, int*, double*)
0000000000064290 T void stochastic_lanczos_quadrature<false, double, SparseEigenLinearOperator<double> const, void _trace_param_f<false, double, SparseEigenLinearOperator<double> >(SparseEigenLinearOperator<double> const*, pybind11::array_t<double, 17> const&, unsigned long, int, unsigned long, double, unsigned long, unsigned long, double, double, double, double, unsigned long, unsigned long, int, pybind11::array_t<double, 17>&, pybind11::array_t<double, 17>&, pybind11::array_t<double, 17>&, pybind11::array_t<int, 16>&, pybind11::array_t<int, 16>&, pybind11::array_t<int, 16>&, pybind11::array_t<int, 16>&, double&, pybind11::kwargs const&)::'lambda0'(double) const&, ThreadedRNG64<pcg_detail::engine<unsigned long long, unsigned __int128, pcg_detail::xsl_rr_mixin<unsigned long long, unsigned __int128>, false, pcg_detail::specific_stream<unsigned __int128>, pcg_detail::default_multiplier<unsigned __int128> >, std::__1::random_device> >(SparseEigenLinearOperator<double>*, double const*, int, void _trace_param_f<false, double, SparseEigenLinearOperator<double> >(SparseEigenLinearOperator<double> const*, pybind11::array_t<double, 17> const&, unsigned long, int, unsigned long, double, unsigned long, unsigned long, double, double, double, double, unsigned long, unsigned long, int, pybind11::array_t<double, 17>&, pybind11::array_t<double, 17>&, pybind11::array_t<double, 17>&, pybind11::array_t<int, 16>&, pybind11::array_t<int, 16>&, pybind11::array_t<int, 16>&, pybind11::array_t<int, 16>&, double&, pybind11::kwargs const&)::'lambda0'(double) const&, int, int, double, ThreadedRNG64<pcg_detail::engine<unsigned long long, unsigned __int128, pcg_detail::xsl_rr_mixin<unsigned long long, unsigned __int128>, false, pcg_detail::specific_stream<unsigned __int128>, pcg_detail::default_multiplier<unsigned __int128> >, std::__1::random_device>&, int, double*, int*, double*)
0000000000064f90 T void stochastic_lanczos_quadrature<false, double, SparseEigenLinearOperator<double> const, void _trace_param_f<false, double, SparseEigenLinearOperator<double> >(SparseEigenLinearOperator<double> const*, pybind11::array_t<double, 17> const&, unsigned long, int, unsigned long, double, unsigned long, unsigned long, double, double, double, double, unsigned long, unsigned long, int, pybind11::array_t<double, 17>&, pybind11::array_t<double, 17>&, pybind11::array_t<double, 17>&, pybind11::array_t<int, 16>&, pybind11::array_t<int, 16>&, pybind11::array_t<int, 16>&, pybind11::array_t<int, 16>&, double&, pybind11::kwargs const&)::'lambda0'(double) const&, ThreadedRNG64<std::__1::mersenne_twister_engine<unsigned long long, 64ul, 312ul, 156ul, 31ul, 13043109905998158313ull, 29ul, 6148914691236517205ull, 17ul, 8202884508482404352ull, 37ul, 18444473444759240704ull, 43ul, 6364136223846793005ull>, std::__1::random_device> >(SparseEigenLinearOperator<double>*, double const*, int, void _trace_param_f<false, double, SparseEigenLinearOperator<double> >(SparseEigenLinearOperator<double> const*, pybind11::array_t<double, 17> const&, unsigned long, int, unsigned long, double, unsigned long, unsigned long, double, double, double, double, unsigned long, unsigned long, int, pybind11::array_t<double, 17>&, pybind11::array_t<double, 17>&, pybind11::array_t<double, 17>&, pybind11::array_t<int, 16>&, pybind11::array_t<int, 16>&, pybind11::array_t<int, 16>&, pybind11::array_t<int, 16>&, double&, pybind11::kwargs const&)::'lambda0'(double) const&, int, int, double, ThreadedRNG64<std::__1::mersenne_twister_engine<unsigned long long, 64ul, 312ul, 156ul, 31ul, 13043109905998158313ull, 29ul, 6148914691236517205ull, 17ul, 8202884508482404352ull, 37ul, 18444473444759240704ull, 43ul, 6364136223846793005ull>, std::__1::random_device>&, int, double*, int*, double*)
0000000000063590 T void stochastic_lanczos_quadrature<false, double, SparseEigenLinearOperator<double> const, void _trace_param_f<false, double, SparseEigenLinearOperator<double> >(SparseEigenLinearOperator<double> const*, pybind11::array_t<double, 17> const&, unsigned long, int, unsigned long, double, unsigned long, unsigned long, double, double, double, double, unsigned long, unsigned long, int, pybind11::array_t<double, 17>&, pybind11::array_t<double, 17>&, pybind11::array_t<double, 17>&, pybind11::array_t<int, 16>&, pybind11::array_t<int, 16>&, pybind11::array_t<int, 16>&, pybind11::array_t<int, 16>&, double&, pybind11::kwargs const&)::'lambda0'(double) const&, ThreadedRNG64<std::__1::linear_congruential_engine<unsigned long long, 6364136223846793005ull, 1442695040888963407ull, 0ull>, std::__1::random_device> >(SparseEigenLinearOperator<double>*, double const*, int, void _trace_param_f<false, double, SparseEigenLinearOperator<double> >(SparseEigenLinearOperator<double> const*, pybind11::array_t<double, 17> const&, unsigned long, int, unsigned long, double, unsigned long, unsigned long, double, double, double, double, unsigned long, unsigned long, int, pybind11::array_t<double, 17>&, pybind11::array_t<double, 17>&, pybind11::array_t<double, 17>&, pybind11::array_t<int, 16>&, pybind11::array_t<int, 16>&, pybind11::array_t<int, 16>&, pybind11::array_t<int, 16>&, double&, pybind11::kwargs const&)::'lambda0'(double) const&, int, int, double, ThreadedRNG64<std::__1::linear_congruential_engine<unsigned long long, 6364136223846793005ull, 1442695040888963407ull, 0ull>, std::__1::random_device>&, int, double*, int*, double*)
00000000000684e0 T void stochastic_lanczos_quadrature<false, double, SparseEigenLinearOperator<double> const, void _trace_param_f<false, double, SparseEigenLinearOperator<double> >(SparseEigenLinearOperator<double> const*, pybind11::array_t<double, 17> const&, unsigned long, int, unsigned long, double, unsigned long, unsigned long, double, double, double, double, unsigned long, unsigned long, int, pybind11::array_t<double, 17>&, pybind11::array_t<double, 17>&, pybind11::array_t<double, 17>&, pybind11::array_t<int, 16>&, pybind11::array_t<int, 16>&, pybind11::array_t<int, 16>&, pybind11::array_t<int, 16>&, double&, pybind11::kwargs const&)::'lambda1'(double) const&, ThreadedRNG64<SplitMix64, std::__1::random_device> >(SparseEigenLinearOperator<double>*, double const*, int, void _trace_param_f<false, double, SparseEigenLinearOperator<double> >(SparseEigenLinearOperator<double> const*, pybind11::array_t<double, 17> const&, unsigned long, int, unsigned long, double, unsigned long, unsigned long, double, double, double, double, unsigned long, unsigned long, int, pybind11::array_t<double, 17>&, pybind11::array_t<double, 17>&, pybind11::array_t<double, 17>&, pybind11::array_t<int, 16>&, pybind11::array_t<int, 16>&, pybind11::array_t<int, 16>&, pybind11::array_t<int, 16>&, double&, pybind11::kwargs const&)::'lambda1'(double) const&, int, int, double, ThreadedRNG64<SplitMix64, std::__1::random_device>&, int, double*, int*, double*)
0000000000069100 T void stochastic_lanczos_quadrature<false, double, SparseEigenLinearOperator<double> const, void _trace_param_f<false, double, SparseEigenLinearOperator<double> >(SparseEigenLinearOperator<double> const*, pybind11::array_t<double, 17> const&, unsigned long, int, unsigned long, double, unsigned long, unsigned long, double, double, double, double, unsigned long, unsigned long, int, pybind11::array_t<double, 17>&, pybind11::array_t<double, 17>&, pybind11::array_t<double, 17>&, pybind11::array_t<int, 16>&, pybind11::array_t<int, 16>&, pybind11::array_t<int, 16>&, pybind11::array_t<int, 16>&, double&, pybind11::kwargs const&)::'lambda1'(double) const&, ThreadedRNG64<Xoshiro256StarStar, std::__1::random_device> >(SparseEigenLinearOperator<double>*, double const*, int, void _trace_param_f<false, double, SparseEigenLinearOperator<double> >(SparseEigenLinearOperator<double> const*, pybind11::array_t<double, 17> const&, unsigned long, int, unsigned long, double, unsigned long, unsigned long, double, double, double, double, unsigned long, unsigned long, int, pybind11::array_t<double, 17>&, pybind11::array_t<double, 17>&, pybind11::array_t<double, 17>&, pybind11::array_t<int, 16>&, pybind11::array_t<int, 16>&, pybind11::array_t<int, 16>&, pybind11::array_t<int, 16>&, double&, pybind11::kwargs const&)::'lambda1'(double) const&, int, int, double, ThreadedRNG64<Xoshiro256StarStar, std::__1::random_device>&, int, double*, int*, double*)
000000000006a940 T void stochastic_lanczos_quadrature<false, double, SparseEigenLinearOperator<double> const, void _trace_param_f<false, double, SparseEigenLinearOperator<double> >(SparseEigenLinearOperator<double> const*, pybind11::array_t<double, 17> const&, unsigned long, int, unsigned long, double, unsigned long, unsigned long, double, double, double, double, unsigned long, unsigned long, int, pybind11::array_t<double, 17>&, pybind11::array_t<double, 17>&, pybind11::array_t<double, 17>&, pybind11::array_t<int, 16>&, pybind11::array_t<int, 16>&, pybind11::array_t<int, 16>&, pybind11::array_t<int, 16>&, double&, pybind11::kwargs const&)::'lambda1'(double) const&, ThreadedRNG64<pcg_detail::engine<unsigned long long, unsigned __int128, pcg_detail::xsl_rr_mixin<unsigned long long, unsigned __int128>, false, pcg_detail::specific_stream<unsigned __int128>, pcg_detail::default_multiplier<unsigned __int128> >, std::__1::random_device> >(SparseEigenLinearOperator<double>*, double const*, int, void _trace_param_f<false, double, SparseEigenLinearOperator<double> >(SparseEigenLinearOperator<double> const*, pybind11::array_t<double, 17> const&, unsigned long, int, unsigned long, double, unsigned long, unsigned long, double, double, double, double, unsigned long, unsigned long, int, pybind11::array_t<double, 17>&, pybind11::array_t<double, 17>&, pybind11::array_t<double, 17>&, pybind11::array_t<int, 16>&, pybind11::array_t<int, 16>&, pybind11::array_t<int, 16>&, pybind11::array_t<int, 16>&, double&, pybind11::kwargs const&)::'lambda1'(double) const&, int, int, double, ThreadedRNG64<pcg_detail::engine<unsigned long long, unsigned __int128, pcg_detail::xsl_rr_mixin<unsigned long long, unsigned __int128>, false, pcg_detail::specific_stream<unsigned __int128>, pcg_detail::default_multiplier<unsigned __int128> >, std::__1::random_device>&, int, double*, int*, double*)
000000000006b560 T void stochastic_lanczos_quadrature<false, double, SparseEigenLinearOperator<double> const, void _trace_param_f<false, double, SparseEigenLinearOperator<double> >(SparseEigenLinearOperator<double> const*, pybind11::array_t<double, 17> const&, unsigned long, int, unsigned long, double, unsigned long, unsigned long, double, double, double, double, unsigned long, unsigned long, int, pybind11::array_t<double, 17>&, pybind11::array_t<double, 17>&, pybind11::array_t<double, 17>&, pybind11::array_t<int, 16>&, pybind11::array_t<int, 16>&, pybind11::array_t<int, 16>&, pybind11::array_t<int, 16>&, double&, pybind11::kwargs const&)::'lambda1'(double) const&, ThreadedRNG64<std::__1::mersenne_twister_engine<unsigned long long, 64ul, 312ul, 156ul, 31ul, 13043109905998158313ull, 29ul, 6148914691236517205ull, 17ul, 8202884508482404352ull, 37ul, 18444473444759240704ull, 43ul, 6364136223846793005ull>, std::__1::random_device> >(SparseEigenLinearOperator<double>*, double const*, int, void _trace_param_f<false, double, SparseEigenLinearOperator<double> >(SparseEigenLinearOperator<double> const*, pybind11::array_t<double, 17> const&, unsigned long, int, unsigned long, double, unsigned long, unsigned long, double, double, double, double, unsigned long, unsigned long, int, pybind11::array_t<double, 17>&, pybind11::array_t<double, 17>&, pybind11::array_t<double, 17>&, pybind11::array_t<int, 16>&, pybind11::array_t<int, 16>&, pybind11::array_t<int, 16>&, pybind11::array_t<int, 16>&, double&, pybind11::kwargs const&)::'lambda1'(double) const&, int, int, double, ThreadedRNG64<std::__1::mersenne_twister_engine<unsigned long long, 64ul, 312ul, 156ul, 31ul, 13043109905998158313ull, 29ul, 6148914691236517205ull, 17ul, 8202884508482404352ull, 37ul, 18444473444759240704ull, 43ul, 6364136223846793005ull>, std::__1::random_device>&, int, double*, int*, double*)
0000000000069d20 T void stochastic_lanczos_quadrature<false, double, SparseEigenLinearOperator<double> const, void _trace_param_f<false, double, SparseEigenLinearOperator<double> >(SparseEigenLinearOperator<double> const*, pybind11::array_t<double, 17> const&, unsigned long, int, unsigned long, double, unsigned long, unsigned long, double, double, double, double, unsigned long, unsigned long, int, pybind11::array_t<double, 17>&, pybind11::array_t<double, 17>&, pybind11::array_t<double, 17>&, pybind11::array_t<int, 16>&, pybind11::array_t<int, 16>&, pybind11::array_t<int, 16>&, pybind11::array_t<int, 16>&, double&, pybind11::kwargs const&)::'lambda1'(double) const&, ThreadedRNG64<std::__1::linear_congruential_engine<unsigned long long, 6364136223846793005ull, 1442695040888963407ull, 0ull>, std::__1::random_device> >(SparseEigenLinearOperator<double>*, double const*, int, void _trace_param_f<false, double, SparseEigenLinearOperator<double> >(SparseEigenLinearOperator<double> const*, pybind11::array_t<double, 17> const&, unsigned long, int, unsigned long, double, unsigned long, unsigned long, double, double, double, double, unsigned long, unsigned long, int, pybind11::array_t<double, 17>&, pybind11::array_t<double, 17>&, pybind11::array_t<double, 17>&, pybind11::array_t<int, 16>&, pybind11::array_t<int, 16>&, pybind11::array_t<int, 16>&, pybind11::array_t<int, 16>&, double&, pybind11::kwargs const&)::'lambda1'(double) const&, int, int, double, ThreadedRNG64<std::__1::linear_congruential_engine<unsigned long long, 6364136223846793005ull, 1442695040888963407ull, 0ull>, std::__1::random_device>&, int, double*, int*, double*)
000000000005b830 T void stochastic_lanczos_quadrature<false, double, SparseEigenLinearOperator<double> const, void _trace_param_f<false, double, SparseEigenLinearOperator<double> >(SparseEigenLinearOperator<double> const*, pybind11::array_t<double, 17> const&, unsigned long, int, unsigned long, double, unsigned long, unsigned long, double, double, double, double, unsigned long, unsigned long, int, pybind11::array_t<double, 17>&, pybind11::array_t<double, 17>&, pybind11::array_t<double, 17>&, pybind11::array_t<int, 16>&, pybind11::array_t<int, 16>&, pybind11::array_t<int, 16>&, pybind11::array_t<int, 16>&, double&, pybind11::kwargs const&)::'lambda'(double) const&, ThreadedRNG64<SplitMix64, std::__1::random_device> >(SparseEigenLinearOperator<double>*, double const*, int, void _trace_param_f<false, double, SparseEigenLinearOperator<double> >(SparseEigenLinearOperator<double> const*, pybind11::array_t<double, 17> const&, unsigned long, int, unsigned long, double, unsigned long, unsigned long, double, double, double, double, unsigned long, unsigned long, int, pybind11::array_t<double, 17>&, pybind11::array_t<double, 17>&, pybind11::array_t<double, 17>&, pybind11::array_t<int, 16>&, pybind11::array_t<int, 16>&, pybind11::array_t<int, 16>&, pybind11::array_t<int, 16>&, double&, pybind11::kwargs const&)::'lambda'(double) const&, int, int, double, ThreadedRNG64<SplitMix64, std::__1::random_device>&, int, double*, int*, double*)
000000000005c400 T void stochastic_lanczos_quadrature<false, double, SparseEigenLinearOperator<double> const, void _trace_param_f<false, double, SparseEigenLinearOperator<double> >(SparseEigenLinearOperator<double> const*, pybind11::array_t<double, 17> const&, unsigned long, int, unsigned long, double, unsigned long, unsigned long, double, double, double, double, unsigned long, unsigned long, int, pybind11::array_t<double, 17>&, pybind11::array_t<double, 17>&, pybind11::array_t<double, 17>&, pybind11::array_t<int, 16>&, pybind11::array_t<int, 16>&, pybind11::array_t<int, 16>&, pybind11::array_t<int, 16>&, double&, pybind11::kwargs const&)::'lambda'(double) const&, ThreadedRNG64<Xoshiro256StarStar, std::__1::random_device> >(SparseEigenLinearOperator<double>*, double const*, int, void _trace_param_f<false, double, SparseEigenLinearOperator<double> >(SparseEigenLinearOperator<double> const*, pybind11::array_t<double, 17> const&, unsigned long, int, unsigned long, double, unsigned long, unsigned long, double, double, double, double, unsigned long, unsigned long, int, pybind11::array_t<double, 17>&, pybind11::array_t<double, 17>&, pybind11::array_t<double, 17>&, pybind11::array_t<int, 16>&, pybind11::array_t<int, 16>&, pybind11::array_t<int, 16>&, pybind11::array_t<int, 16>&, double&, pybind11::kwargs const&)::'lambda'(double) const&, int, int, double, ThreadedRNG64<Xoshiro256StarStar, std::__1::random_device>&, int, double*, int*, double*)
000000000005dba0 T void stochastic_lanczos_quadrature<false, double, SparseEigenLinearOperator<double> const, void _trace_param_f<false, double, SparseEigenLinearOperator<double> >(SparseEigenLinearOperator<double> const*, pybind11::array_t<double, 17> const&, unsigned long, int, unsigned long, double, unsigned long, unsigned long, double, double, double, double, unsigned long, unsigned long, int, pybind11::array_t<double, 17>&, pybind11::array_t<double, 17>&, pybind11::array_t<double, 17>&, pybind11::array_t<int, 16>&, pybind11::array_t<int, 16>&, pybind11::array_t<int, 16>&, pybind11::array_t<int, 16>&, double&, pybind11::kwargs const&)::'lambda'(double) const&, ThreadedRNG64<pcg_detail::engine<unsigned long long, unsigned __int128, pcg_detail::xsl_rr_mixin<unsigned long long, unsigned __int128>, false, pcg_detail::specific_stream<unsigned __int128>, pcg_detail::default_multiplier<unsigned __int128> >, std::__1::random_device> >(SparseEigenLinearOperator<double>*, double const*, int, void _trace_param_f<false, double, SparseEigenLinearOperator<double> >(SparseEigenLinearOperator<double> const*, pybind11::array_t<double, 17> const&, unsigned long, int, unsigned long, double, unsigned long, unsigned long, double, double, double, double, unsigned long, unsigned long, int, pybind11::array_t<double, 17>&, pybind11::array_t<double, 17>&, pybind11::array_t<double, 17>&, pybind11::array_t<int, 16>&, pybind11::array_t<int, 16>&, pybind11::array_t<int, 16>&, pybind11::array_t<int, 16>&, double&, pybind11::kwargs const&)::'lambda'(double) const&, int, int, double, ThreadedRNG64<pcg_detail::engine<unsigned long long, unsigned __int128, pcg_detail::xsl_rr_mixin<unsigned long long, unsigned __int128>, false, pcg_detail::specific_stream<unsigned __int128>, pcg_detail::default_multiplier<unsigned __int128> >, std::__1::random_device>&, int, double*, int*, double*)
000000000005e770 T void stochastic_lanczos_quadrature<false, double, SparseEigenLinearOperator<double> const, void _trace_param_f<false, double, SparseEigenLinearOperator<double> >(SparseEigenLinearOperator<double> const*, pybind11::array_t<double, 17> const&, unsigned long, int, unsigned long, double, unsigned long, unsigned long, double, double, double, double, unsigned long, unsigned long, int, pybind11::array_t<double, 17>&, pybind11::array_t<double, 17>&, pybind11::array_t<double, 17>&, pybind11::array_t<int, 16>&, pybind11::array_t<int, 16>&, pybind11::array_t<int, 16>&, pybind11::array_t<int, 16>&, double&, pybind11::kwargs const&)::'lambda'(double) const&, ThreadedRNG64<std::__1::mersenne_twister_engine<unsigned long long, 64ul, 312ul, 156ul, 31ul, 13043109905998158313ull, 29ul, 6148914691236517205ull, 17ul, 8202884508482404352ull, 37ul, 18444473444759240704ull, 43ul, 6364136223846793005ull>, std::__1::random_device> >(SparseEigenLinearOperator<double>*, double const*, int, void _trace_param_f<false, double, SparseEigenLinearOperator<double> >(SparseEigenLinearOperator<double> const*, pybind11::array_t<double, 17> const&, unsigned long, int, unsigned long, double, unsigned long, unsigned long, double, double, double, double, unsigned long, unsigned long, int, pybind11::array_t<double, 17>&, pybind11::array_t<double, 17>&, pybind11::array_t<double, 17>&, pybind11::array_t<int, 16>&, pybind11::array_t<int, 16>&, pybind11::array_t<int, 16>&, pybind11::array_t<int, 16>&, double&, pybind11::kwargs const&)::'lambda'(double) const&, int, int, double, ThreadedRNG64<std::__1::mersenne_twister_engine<unsigned long long, 64ul, 312ul, 156ul, 31ul, 13043109905998158313ull, 29ul, 6148914691236517205ull, 17ul, 8202884508482404352ull, 37ul, 18444473444759240704ull, 43ul, 6364136223846793005ull>, std::__1::random_device>&, int, double*, int*, double*)
000000000005cfd0 T void stochastic_lanczos_quadrature<false, double, SparseEigenLinearOperator<double> const, void _trace_param_f<false, double, SparseEigenLinearOperator<double> >(SparseEigenLinearOperator<double> const*, pybind11::array_t<double, 17> const&, unsigned long, int, unsigned long, double, unsigned long, unsigned long, double, double, double, double, unsigned long, unsigned long, int, pybind11::array_t<double, 17>&, pybind11::array_t<double, 17>&, pybind11::array_t<double, 17>&, pybind11::array_t<int, 16>&, pybind11::array_t<int, 16>&, pybind11::array_t<int, 16>&, pybind11::array_t<int, 16>&, double&, pybind11::kwargs const&)::'lambda'(double) const&, ThreadedRNG64<std::__1::linear_congruential_engine<unsigned long long, 6364136223846793005ull, 1442695040888963407ull, 0ull>, std::__1::random_device> >(SparseEigenLinearOperator<double>*, double const*, int, void _trace_param_f<false, double, SparseEigenLinearOperator<double> >(SparseEigenLinearOperator<double> const*, pybind11::array_t<double, 17> const&, unsigned long, int, unsigned long, double, unsigned long, unsigned long, double, double, double, double, unsigned long, unsigned long, int, pybind11::array_t<double, 17>&, pybind11::array_t<double, 17>&, pybind11::array_t<double, 17>&, pybind11::array_t<int, 16>&, pybind11::array_t<int, 16>&, pybind11::array_t<int, 16>&, pybind11::array_t<int, 16>&, double&, pybind11::kwargs const&)::'lambda'(double) const&, int, int, double, ThreadedRNG64<std::__1::linear_congruential_engine<unsigned long long, 6364136223846793005ull, 1442695040888963407ull, 0ull>, std::__1::random_device>&, int, double*, int*, double*)
0000000000029a30 T void stochastic_lanczos_quadrature<false, float, SparseEigenLinearOperator<float> const, std::__1::identity const&, ThreadedRNG64<SplitMix64, std::__1::random_device> >(SparseEigenLinearOperator<float> const*, float const*, int, std::__1::identity const&, int, int, float, ThreadedRNG64<SplitMix64, std::__1::random_device>&, int, float*, int*, float*)
000000000002e210 T void stochastic_lanczos_quadrature<false, float, SparseEigenLinearOperator<float> const, std::__1::identity const&, ThreadedRNG64<Xoshiro256StarStar, std::__1::random_device> >(SparseEigenLinearOperator<float> const*, float const*, int, std::__1::identity const&, int, int, float, ThreadedRNG64<Xoshiro256StarStar, std::__1::random_device>&, int, float*, int*, float*)
0000000000031c60 T void stochastic_lanczos_quadrature<false, float, SparseEigenLinearOperator<float> const, std::__1::identity const&, ThreadedRNG64<pcg_detail::engine<unsigned long long, unsigned __int128, pcg_detail::xsl_rr_mixin<unsigned long long, unsigned __int128>, false, pcg_detail::specific_stream<unsigned __int128>, pcg_detail::default_multiplier<unsigned __int128> >, std::__1::random_device> >(SparseEigenLinearOperator<float> const*, float const*, int, std::__1::identity const&, int, int, float, ThreadedRNG64<pcg_detail::engine<unsigned long long, unsigned __int128, pcg_detail::xsl_rr_mixin<unsigned long long, unsigned __int128>, false, pcg_detail::specific_stream<unsigned __int128>, pcg_detail::default_multiplier<unsigned __int128> >, std::__1::random_device>&, int, float*, int*, float*)
0000000000033990 T void stochastic_lanczos_quadrature<false, float, SparseEigenLinearOperator<float> const, std::__1::identity const&, ThreadedRNG64<std::__1::mersenne_twister_engine<unsigned long long, 64ul, 312ul, 156ul, 31ul, 13043109905998158313ull, 29ul, 6148914691236517205ull, 17ul, 8202884508482404352ull, 37ul, 18444473444759240704ull, 43ul, 6364136223846793005ull>, std::__1::random_device> >(SparseEigenLinearOperator<float> const*, float const*, int, std::__1::identity const&, int, int, float, ThreadedRNG64<std::__1::mersenne_twister_engine<unsigned long long, 64ul, 312ul, 156ul, 31ul, 13043109905998158313ull, 29ul, 6148914691236517205ull, 17ul, 8202884508482404352ull, 37ul, 18444473444759240704ull, 43ul, 6364136223846793005ull>, std::__1::random_device>&, int, float*, int*, float*)
000000000002ff40 T void stochastic_lanczos_quadrature<false, float, SparseEigenLinearOperator<float> const, std::__1::identity const&, ThreadedRNG64<std::__1::linear_congruential_engine<unsigned long long, 6364136223846793005ull, 1442695040888963407ull, 0ull>, std::__1::random_device> >(SparseEigenLinearOperator<float> const*, float const*, int, std::__1::identity const&, int, int, float, ThreadedRNG64<std::__1::linear_congruential_engine<unsigned long long, 6364136223846793005ull, 1442695040888963407ull, 0ull>, std::__1::random_device>&, int, float*, int*, float*)
000000000003d910 T void stochastic_lanczos_quadrature<false, float, SparseEigenLinearOperator<float> const, void _trace_param_f<false, float, SparseEigenLinearOperator<float> >(SparseEigenLinearOperator<float> const*, pybind11::array_t<float, 17> const&, unsigned long, int, unsigned long, float, unsigned long, unsigned long, float, float, float, float, unsigned long, unsigned long, int, pybind11::array_t<float, 17>&, pybind11::array_t<float, 17>&, pybind11::array_t<float, 17>&, pybind11::array_t<int, 16>&, pybind11::array_t<int, 16>&, pybind11::array_t<int, 16>&, pybind11::array_t<int, 16>&, float&, pybind11::kwargs const&)::'lambda0'(float) const&, ThreadedRNG64<SplitMix64, std::__1::random_device> >(SparseEigenLinearOperator<float>*, float const*, int, void _trace_param_f<false, float, SparseEigenLinearOperator<float> >(SparseEigenLinearOperator<float> const*, pybind11::array_t<float, 17> const&, unsigned long, int, unsigned long, float, unsigned long, unsigned long, float, float, float, float, unsigned long, unsigned long, int, pybind11::array_t<float, 17>&, pybind11::array_t<float, 17>&, pybind11::array_t<float, 17>&, pybind11::array_t<int, 16>&, pybind11::array_t<int, 16>&, pybind11::array_t<int, 16>&, pybind11::array_t<int, 16>&, float&, pybind11::kwargs const&)::'lambda0'(float) const&, int, int, float, ThreadedRNG64<SplitMix64, std::__1::random_device>&, int, float*, int*, float*)
000000000003e5a0 T void stochastic_lanczos_quadrature<false, float, SparseEigenLinearOperator<float> const, void _trace_param_f<false, float, SparseEigenLinearOperator<float> >(SparseEigenLinearOperator<float> const*, pybind11::array_t<float, 17> const&, unsigned long, int, unsigned long, float, unsigned long, unsigned long, float, float, float, float, unsigned long, unsigned long, int, pybind11::array_t<float, 17>&, pybind11::array_t<float, 17>&, pybind11::array_t<float, 17>&, pybind11::array_t<int, 16>&, pybind11::array_t<int, 16>&, pybind11::array_t<int, 16>&, pybind11::array_t<int, 16>&, float&, pybind11::kwargs const&)::'lambda0'(float) const&, ThreadedRNG64<Xoshiro256StarStar, std::__1::random_device> >(SparseEigenLinearOperator<float>*, float const*, int, void _trace_param_f<false, float, SparseEigenLinearOperator<float> >(SparseEigenLinearOperator<float> const*, pybind11::array_t<float, 17> const&, unsigned long, int, unsigned long, float, unsigned long, unsigned long, float, float, float, float, unsigned long, unsigned long, int, pybind11::array_t<float, 17>&, pybind11::array_t<float, 17>&, pybind11::array_t<float, 17>&, pybind11::array_t<int, 16>&, pybind11::array_t<int, 16>&, pybind11::array_t<int, 16>&, pybind11::array_t<int, 16>&, float&, pybind11::kwargs const&)::'lambda0'(float) const&, int, int, float, ThreadedRNG64<Xoshiro256StarStar, std::__1::random_device>&, int, float*, int*, float*)
000000000003fec0 T void stochastic_lanczos_quadrature<false, float, SparseEigenLinearOperator<float> const, void _trace_param_f<false, float, SparseEigenLinearOperator<float> >(SparseEigenLinearOperator<float> const*, pybind11::array_t<float, 17> const&, unsigned long, int, unsigned long, float, unsigned long, unsigned long, float, float, float, float, unsigned long, unsigned long, int, pybind11::array_t<float, 17>&, pybind11::array_t<float, 17>&, pybind11::array_t<float, 17>&, pybind11::array_t<int, 16>&, pybind11::array_t<int, 16>&, pybind11::array_t<int, 16>&, pybind11::array_t<int, 16>&, float&, pybind11::kwargs const&)::'lambda0'(float) const&, ThreadedRNG64<pcg_detail::engine<unsigned long long, unsigned __int128, pcg_detail::xsl_rr_mixin<unsigned long long, unsigned __int128>, false, pcg_detail::specific_stream<unsigned __int128>, pcg_detail::default_multiplier<unsigned __int128> >, std::__1::random_device> >(SparseEigenLinearOperator<float>*, float const*, int, void _trace_param_f<false, float, SparseEigenLinearOperator<float> >(SparseEigenLinearOperator<float> const*, pybind11::array_t<float, 17> const&, unsigned long, int, unsigned long, float, unsigned long, unsigned long, float, float, float, float, unsigned long, unsigned long, int, pybind11::array_t<float, 17>&, pybind11::array_t<float, 17>&, pybind11::array_t<float, 17>&, pybind11::array_t<int, 16>&, pybind11::array_t<int, 16>&, pybind11::array_t<int, 16>&, pybind11::array_t<int, 16>&, float&, pybind11::kwargs const&)::'lambda0'(float) const&, int, int, float, ThreadedRNG64<pcg_detail::engine<unsigned long long, unsigned __int128, pcg_detail::xsl_rr_mixin<unsigned long long, unsigned __int128>, false, pcg_detail::specific_stream<unsigned __int128>, pcg_detail::default_multiplier<unsigned __int128> >, std::__1::random_device>&, int, float*, int*, float*)
0000000000040b50 T void stochastic_lanczos_quadrature<false, float, SparseEigenLinearOperator<float> const, void _trace_param_f<false, float, SparseEigenLinearOperator<float> >(SparseEigenLinearOperator<float> const*, pybind11::array_t<float, 17> const&, unsigned long, int, unsigned long, float, unsigned long, unsigned long, float, float, float, float, unsigned long, unsigned long, int, pybind11::array_t<float, 17>&, pybind11::array_t<float, 17>&, pybind11::array_t<float, 17>&, pybind11::array_t<int, 16>&, pybind11::array_t<int, 16>&, pybind11::array_t<int, 16>&, pybind11::array_t<int, 16>&, float&, pybind11::kwargs const&)::'lambda0'(float) const&, ThreadedRNG64<std::__1::mersenne_twister_engine<unsigned long long, 64ul, 312ul, 156ul, 31ul, 13043109905998158313ull, 29ul, 6148914691236517205ull, 17ul, 8202884508482404352ull, 37ul, 18444473444759240704ull, 43ul, 6364136223846793005ull>, std::__1::random_device> >(SparseEigenLinearOperator<float>*, float const*, int, void _trace_param_f<false, float, SparseEigenLinearOperator<float> >(SparseEigenLinearOperator<float> const*, pybind11::array_t<float, 17> const&, unsigned long, int, unsigned long, float, unsigned long, unsigned long, float, float, float, float, unsigned long, unsigned long, int, pybind11::array_t<float, 17>&, pybind11::array_t<float, 17>&, pybind11::array_t<float, 17>&, pybind11::array_t<int, 16>&, pybind11::array_t<int, 16>&, pybind11::array_t<int, 16>&, pybind11::array_t<int, 16>&, float&, pybind11::kwargs const&)::'lambda0'(float) const&, int, int, float, ThreadedRNG64<std::__1::mersenne_twister_engine<unsigned long long, 64ul, 312ul, 156ul, 31ul, 13043109905998158313ull, 29ul, 6148914691236517205ull, 17ul, 8202884508482404352ull, 37ul, 18444473444759240704ull, 43ul, 6364136223846793005ull>, std::__1::random_device>&, int, float*, int*, float*)
000000000003f230 T void stochastic_lanczos_quadrature<false, float, SparseEigenLinearOperator<float> const, void _trace_param_f<false, float, SparseEigenLinearOperator<float> >(SparseEigenLinearOperator<float> const*, pybind11::array_t<float, 17> const&, unsigned long, int, unsigned long, float, unsigned long, unsigned long, float, float, float, float, unsigned long, unsigned long, int, pybind11::array_t<float, 17>&, pybind11::array_t<float, 17>&, pybind11::array_t<float, 17>&, pybind11::array_t<int, 16>&, pybind11::array_t<int, 16>&, pybind11::array_t<int, 16>&, pybind11::array_t<int, 16>&, float&, pybind11::kwargs const&)::'lambda0'(float) const&, ThreadedRNG64<std::__1::linear_congruential_engine<unsigned long long, 6364136223846793005ull, 1442695040888963407ull, 0ull>, std::__1::random_device> >(SparseEigenLinearOperator<float>*, float const*, int, void _trace_param_f<false, float, SparseEigenLinearOperator<float> >(SparseEigenLinearOperator<float> const*, pybind11::array_t<float, 17> const&, unsigned long, int, unsigned long, float, unsigned long, unsigned long, float, float, float, float, unsigned long, unsigned long, int, pybind11::array_t<float, 17>&, pybind11::array_t<float, 17>&, pybind11::array_t<float, 17>&, pybind11::array_t<int, 16>&, pybind11::array_t<int, 16>&, pybind11::array_t<int, 16>&, pybind11::array_t<int, 16>&, float&, pybind11::kwargs const&)::'lambda0'(float) const&, int, int, float, ThreadedRNG64<std::__1::linear_congruential_engine<unsigned long long, 6364136223846793005ull, 1442695040888963407ull, 0ull>, std::__1::random_device>&, int, float*, int*, float*)
0000000000044030 T void stochastic_lanczos_quadrature<false, float, SparseEigenLinearOperator<float> const, void _trace_param_f<false, float, SparseEigenLinearOperator<float> >(SparseEigenLinearOperator<float> const*, pybind11::array_t<float, 17> const&, unsigned long, int, unsigned long, float, unsigned long, unsigned long, float, float, float, float, unsigned long, unsigned long, int, pybind11::array_t<float, 17>&, pybind11::array_t<float, 17>&, pybind11::array_t<float, 17>&, pybind11::array_t<int, 16>&, pybind11::array_t<int, 16>&, pybind11::array_t<int, 16>&, pybind11::array_t<int, 16>&, float&, pybind11::kwargs const&)::'lambda1'(float) const&, ThreadedRNG64<SplitMix64, std::__1::random_device> >(SparseEigenLinearOperator<float>*, float const*, int, void _trace_param_f<false, float, SparseEigenLinearOperator<float> >(SparseEigenLinearOperator<float> const*, pybind11::array_t<float, 17> const&, unsigned long, int, unsigned long, float, unsigned long, unsigned long, float, float, float, float, unsigned long, unsigned long, int, pybind11::array_t<float, 17>&, pybind11::array_t<float, 17>&, pybind11::array_t<float, 17>&, pybind11::array_t<int, 16>&, pybind11::array_t<int, 16>&, pybind11::array_t<int, 16>&, pybind11::array_t<int, 16>&, float&, pybind11::kwargs const&)::'lambda1'(float) const&, int, int, float, ThreadedRNG64<SplitMix64, std::__1::random_device>&, int, float*, int*, float*)
0000000000044c20 T void stochastic_lanczos_quadrature<false, float, SparseEigenLinearOperator<float> const, void _trace_param_f<false, float, SparseEigenLinearOperator<float> >(SparseEigenLinearOperator<float> const*, pybind11::array_t<float, 17> const&, unsigned long, int, unsigned long, float, unsigned long, unsigned long, float, float, float, float, unsigned long, unsigned long, int, pybind11::array_t<float, 17>&, pybind11::array_t<float, 17>&, pybind11::array_t<float, 17>&, pybind11::array_t<int, 16>&, pybind11::array_t<int, 16>&, pybind11::array_t<int, 16>&, pybind11::array_t<int, 16>&, float&, pybind11::kwargs const&)::'lambda1'(float) const&, ThreadedRNG64<Xoshiro256StarStar, std::__1::random_device> >(SparseEigenLinearOperator<float>*, float const*, int, void _trace_param_f<false, float, SparseEigenLinearOperator<float> >(SparseEigenLinearOperator<float> const*, pybind11::array_t<float, 17> const&, unsigned long, int, unsigned long, float, unsigned long, unsigned long, float, float, float, float, unsigned long, unsigned long, int, pybind11::array_t<float, 17>&, pybind11::array_t<float, 17>&, pybind11::array_t<float, 17>&, pybind11::array_t<int, 16>&, pybind11::array_t<int, 16>&, pybind11::array_t<int, 16>&, pybind11::array_t<int, 16>&, float&, pybind11::kwargs const&)::'lambda1'(float) const&, int, int, float, ThreadedRNG64<Xoshiro256StarStar, std::__1::random_device>&, int, float*, int*, float*)
0000000000046400 T void stochastic_lanczos_quadrature<false, float, SparseEigenLinearOperator<float> const, void _trace_param_f<false, float, SparseEigenLinearOperator<float> >(SparseEigenLinearOperator<float> const*, pybind11::array_t<float, 17> const&, unsigned long, int, unsigned long, float, unsigned long, unsigned long, float, float, float, float, unsigned long, unsigned long, int, pybind11::array_t<float, 17>&, pybind11::array_t<float, 17>&, pybind11::array_t<float, 17>&, pybind11::array_t<int, 16>&, pybind11::array_t<int, 16>&, pybind11::array_t<int, 16>&, pybind11::array_t<int, 16>&, float&, pybind11::kwargs const&)::'lambda1'(float) const&, ThreadedRNG64<pcg_detail::engine<unsigned long long, unsigned __int128, pcg_detail::xsl_rr_mixin<unsigned long long, unsigned __int128>, false, pcg_detail::specific_stream<unsigned __int128>, pcg_detail::default_multiplier<unsigned __int128> >, std::__1::random_device> >(SparseEigenLinearOperator<float>*, float const*, int, void _trace_param_f<false, float, SparseEigenLinearOperator<float> >(SparseEigenLinearOperator<float> const*, pybind11::array_t<float, 17> const&, unsigned long, int, unsigned long, float, unsigned long, unsigned long, float, float, float, float, unsigned long, unsigned long, int, pybind11::array_t<float, 17>&, pybind11::array_t<float, 17>&, pybind11::array_t<float, 17>&, pybind11::array_t<int, 16>&, pybind11::array_t<int, 16>&, pybind11::array_t<int, 16>&, pybind11::array_t<int, 16>&, float&, pybind11::kwargs const&)::'lambda1'(float) const&, int, int, float, ThreadedRNG64<pcg_detail::engine<unsigned long long, unsigned __int128, pcg_detail::xsl_rr_mixin<unsigned long long, unsigned __int128>, false, pcg_detail::specific_stream<unsigned __int128>, pcg_detail::default_multiplier<unsigned __int128> >, std::__1::random_device>&, int, float*, int*, float*)
0000000000046ff0 T void stochastic_lanczos_quadrature<false, float, SparseEigenLinearOperator<float> const, void _trace_param_f<false, float, SparseEigenLinearOperator<float> >(SparseEigenLinearOperator<float> const*, pybind11::array_t<float, 17> const&, unsigned long, int, unsigned long, float, unsigned long, unsigned long, float, float, float, float, unsigned long, unsigned long, int, pybind11::array_t<float, 17>&, pybind11::array_t<float, 17>&, pybind11::array_t<float, 17>&, pybind11::array_t<int, 16>&, pybind11::array_t<int, 16>&, pybind11::array_t<int, 16>&, pybind11::array_t<int, 16>&, float&, pybind11::kwargs const&)::'lambda1'(float) const&, ThreadedRNG64<std::__1::mersenne_twister_engine<unsigned long long, 64ul, 312ul, 156ul, 31ul, 13043109905998158313ull, 29ul, 6148914691236517205ull, 17ul, 8202884508482404352ull, 37ul, 18444473444759240704ull, 43ul, 6364136223846793005ull>, std::__1::random_device> >(SparseEigenLinearOperator<float>*, float const*, int, void _trace_param_f<false, float, SparseEigenLinearOperator<float> >(SparseEigenLinearOperator<float> const*, pybind11::array_t<float, 17> const&, unsigned long, int, unsigned long, float, unsigned long, unsigned long, float, float, float, float, unsigned long, unsigned long, int, pybind11::array_t<float, 17>&, pybind11::array_t<float, 17>&, pybind11::array_t<float, 17>&, pybind11::array_t<int, 16>&, pybind11::array_t<int, 16>&, pybind11::array_t<int, 16>&, pybind11::array_t<int, 16>&, float&, pybind11::kwargs const&)::'lambda1'(float) const&, int, int, float, ThreadedRNG64<std::__1::mersenne_twister_engine<unsigned long long, 64ul, 312ul, 156ul, 31ul, 13043109905998158313ull, 29ul, 6148914691236517205ull, 17ul, 8202884508482404352ull, 37ul, 18444473444759240704ull, 43ul, 6364136223846793005ull>, std::__1::random_device>&, int, float*, int*, float*)
0000000000045810 T void stochastic_lanczos_quadrature<false, float, SparseEigenLinearOperator<float> const, void _trace_param_f<false, float, SparseEigenLinearOperator<float> >(SparseEigenLinearOperator<float> const*, pybind11::array_t<float, 17> const&, unsigned long, int, unsigned long, float, unsigned long, unsigned long, float, float, float, float, unsigned long, unsigned long, int, pybind11::array_t<float, 17>&, pybind11::array_t<float, 17>&, pybind11::array_t<float, 17>&, pybind11::array_t<int, 16>&, pybind11::array_t<int, 16>&, pybind11::array_t<int, 16>&, pybind11::array_t<int, 16>&, float&, pybind11::kwargs const&)::'lambda1'(float) const&, ThreadedRNG64<std::__1::linear_congruential_engine<unsigned long long, 6364136223846793005ull, 1442695040888963407ull, 0ull>, std::__1::random_device> >(SparseEigenLinearOperator<float>*, float const*, int, void _trace_param_f<false, float, SparseEigenLinearOperator<float> >(SparseEigenLinearOperator<float> const*, pybind11::array_t<float, 17> const&, unsigned long, int, unsigned long, float, unsigned long, unsigned long, float, float, float, float, unsigned long, unsigned long, int, pybind11::array_t<float, 17>&, pybind11::array_t<float, 17>&, pybind11::array_t<float, 17>&, pybind11::array_t<int, 16>&, pybind11::array_t<int, 16>&, pybind11::array_t<int, 16>&, pybind11::array_t<int, 16>&, float&, pybind11::kwargs const&)::'lambda1'(float) const&, int, int, float, ThreadedRNG64<std::__1::linear_congruential_engine<unsigned long long, 6364136223846793005ull, 1442695040888963407ull, 0ull>, std::__1::random_device>&, int, float*, int*, float*)
00000000000376f0 T void stochastic_lanczos_quadrature<false, float, SparseEigenLinearOperator<float> const, void _trace_param_f<false, float, SparseEigenLinearOperator<float> >(SparseEigenLinearOperator<float> const*, pybind11::array_t<float, 17> const&, unsigned long, int, unsigned long, float, unsigned long, unsigned long, float, float, float, float, unsigned long, unsigned long, int, pybind11::array_t<float, 17>&, pybind11::array_t<float, 17>&, pybind11::array_t<float, 17>&, pybind11::array_t<int, 16>&, pybind11::array_t<int, 16>&, pybind11::array_t<int, 16>&, pybind11::array_t<int, 16>&, float&, pybind11::kwargs const&)::'lambda'(float) const&, ThreadedRNG64<SplitMix64, std::__1::random_device> >(SparseEigenLinearOperator<float>*, float const*, int, void _trace_param_f<false, float, SparseEigenLinearOperator<float> >(SparseEigenLinearOperator<float> const*, pybind11::array_t<float, 17> const&, unsigned long, int, unsigned long, float, unsigned long, unsigned long, float, float, float, float, unsigned long, unsigned long, int, pybind11::array_t<float, 17>&, pybind11::array_t<float, 17>&, pybind11::array_t<float, 17>&, pybind11::array_t<int, 16>&, pybind11::array_t<int, 16>&, pybind11::array_t<int, 16>&, pybind11::array_t<int, 16>&, float&, pybind11::kwargs const&)::'lambda'(float) const&, int, int, float, ThreadedRNG64<SplitMix64, std::__1::random_device>&, int, float*, int*, float*)
0000000000038280 T void stochastic_lanczos_quadrature<false, float, SparseEigenLinearOperator<float> const, void _trace_param_f<false, float, SparseEigenLinearOperator<float> >(SparseEigenLinearOperator<float> const*, pybind11::array_t<float, 17> const&, unsigned long, int, unsigned long, float, unsigned long, unsigned long, float, float, float, float, unsigned long, unsigned long, int, pybind11::array_t<float, 17>&, pybind11::array_t<float, 17>&, pybind11::array_t<float, 17>&, pybind11::array_t<int, 16>&, pybind11::array_t<int, 16>&, pybind11::array_t<int, 16>&, pybind11::array_t<int, 16>&, float&, pybind11::kwargs const&)::'lambda'(float) const&, ThreadedRNG64<Xoshiro256StarStar, std::__1::random_device> >(SparseEigenLinearOperator<float>*, float const*, int, void _trace_param_f<false, float, SparseEigenLinearOperator<float> >(SparseEigenLinearOperator<float> const*, pybind11::array_t<float, 17> const&, unsigned long, int, unsigned long, float, unsigned long, unsigned long, float, float, float, float, unsigned long, unsigned long, int, pybind11::array_t<float, 17>&, pybind11::array_t<float, 17>&, pybind11::array_t<float, 17>&, pybind11::array_t<int, 16>&, pybind11::array_t<int, 16>&, pybind11::array_t<int, 16>&, pybind11::array_t<int, 16>&, float&, pybind11::kwargs const&)::'lambda'(float) const&, int, int, float, ThreadedRNG64<Xoshiro256StarStar, std::__1::random_device>&, int, float*, int*, float*)
00000000000399a0 T void stochastic_lanczos_quadrature<false, float, SparseEigenLinearOperator<float> const, void _trace_param_f<false, float, SparseEigenLinearOperator<float> >(SparseEigenLinearOperator<float> const*, pybind11::array_t<float, 17> const&, unsigned long, int, unsigned long, float, unsigned long, unsigned long, float, float, float, float, unsigned long, unsigned long, int, pybind11::array_t<float, 17>&, pybind11::array_t<float, 17>&, pybind11::array_t<float, 17>&, pybind11::array_t<int, 16>&, pybind11::array_t<int, 16>&, pybind11::array_t<int, 16>&, pybind11::array_t<int, 16>&, float&, pybind11::kwargs const&)::'lambda'(float) const&, ThreadedRNG64<pcg_detail::engine<unsigned long long, unsigned __int128, pcg_detail::xsl_rr_mixin<unsigned long long, unsigned __int128>, false, pcg_detail::specific_stream<unsigned __int128>, pcg_detail::default_multiplier<unsigned __int128> >, std::__1::random_device> >(SparseEigenLinearOperator<float>*, float const*, int, void _trace_param_f<false, float, SparseEigenLinearOperator<float> >(SparseEigenLinearOperator<float> const*, pybind11::array_t<float, 17> const&, unsigned long, int, unsigned long, float, unsigned long, unsigned long, float, float, float, float, unsigned long, unsigned long, int, pybind11::array_t<float, 17>&, pybind11::array_t<float, 17>&, pybind11::array_t<float, 17>&, pybind11::array_t<int, 16>&, pybind11::array_t<int, 16>&, pybind11::array_t<int, 16>&, pybind11::array_t<int, 16>&, float&, pybind11::kwargs const&)::'lambda'(float) const&, int, int, float, ThreadedRNG64<pcg_detail::engine<unsigned long long, unsigned __int128, pcg_detail::xsl_rr_mixin<unsigned long long, unsigned __int128>, false, pcg_detail::specific_stream<unsigned __int128>, pcg_detail::default_multiplier<unsigned __int128> >, std::__1::random_device>&, int, float*, int*, float*)
000000000003a530 T void stochastic_lanczos_quadrature<false, float, SparseEigenLinearOperator<float> const, void _trace_param_f<false, float, SparseEigenLinearOperator<float> >(SparseEigenLinearOperator<float> const*, pybind11::array_t<float, 17> const&, unsigned long, int, unsigned long, float, unsigned long, unsigned long, float, float, float, float, unsigned long, unsigned long, int, pybind11::array_t<float, 17>&, pybind11::array_t<float, 17>&, pybind11::array_t<float, 17>&, pybind11::array_t<int, 16>&, pybind11::array_t<int, 16>&, pybind11::array_t<int, 16>&, pybind11::array_t<int, 16>&, float&, pybind11::kwargs const&)::'lambda'(float) const&, ThreadedRNG64<std::__1::mersenne_twister_engine<unsigned long long, 64ul, 312ul, 156ul, 31ul, 13043109905998158313ull, 29ul, 6148914691236517205ull, 17ul, 8202884508482404352ull, 37ul, 18444473444759240704ull, 43ul, 6364136223846793005ull>, std::__1::random_device> >(SparseEigenLinearOperator<float>*, float const*, int, void _trace_param_f<false, float, SparseEigenLinearOperator<float> >(SparseEigenLinearOperator<float> const*, pybind11::array_t<float, 17> const&, unsigned long, int, unsigned long, float, unsigned long, unsigned long, float, float, float, float, unsigned long, unsigned long, int, pybind11::array_t<float, 17>&, pybind11::array_t<float, 17>&, pybind11::array_t<float, 17>&, pybind11::array_t<int, 16>&, pybind11::array_t<int, 16>&, pybind11::array_t<int, 16>&, pybind11::array_t<int, 16>&, float&, pybind11::kwargs const&)::'lambda'(float) const&, int, int, float, ThreadedRNG64<std::__1::mersenne_twister_engine<unsigned long long, 64ul, 312ul, 156ul, 31ul, 13043109905998158313ull, 29ul, 6148914691236517205ull, 17ul, 8202884508482404352ull, 37ul, 18444473444759240704ull, 43ul, 6364136223846793005ull>, std::__1::random_device>&, int, float*, int*, float*)
0000000000038e10 T void stochastic_lanczos_quadrature<false, float, SparseEigenLinearOperator<float> const, void _trace_param_f<false, float, SparseEigenLinearOperator<float> >(SparseEigenLinearOperator<float> const*, pybind11::array_t<float, 17> const&, unsigned long, int, unsigned long, float, unsigned long, unsigned long, float, float, float, float, unsigned long, unsigned long, int, pybind11::array_t<float, 17>&, pybind11::array_t<float, 17>&, pybind11::array_t<float, 17>&, pybind11::array_t<int, 16>&, pybind11::array_t<int, 16>&, pybind11::array_t<int, 16>&, pybind11::array_t<int, 16>&, float&, pybind11::kwargs const&)::'lambda'(float) const&, ThreadedRNG64<std::__1::linear_congruential_engine<unsigned long long, 6364136223846793005ull, 1442695040888963407ull, 0ull>, std::__1::random_device> >(SparseEigenLinearOperator<float>*, float const*, int, void _trace_param_f<false, float, SparseEigenLinearOperator<float> >(SparseEigenLinearOperator<float> const*, pybind11::array_t<float, 17> const&, unsigned long, int, unsigned long, float, unsigned long, unsigned long, float, float, float, float, unsigned long, unsigned long, int, pybind11::array_t<float, 17>&, pybind11::array_t<float, 17>&, pybind11::array_t<float, 17>&, pybind11::array_t<int, 16>&, pybind11::array_t<int, 16>&, pybind11::array_t<int, 16>&, pybind11::array_t<int, 16>&, float&, pybind11::kwargs const&)::'lambda'(float) const&, int, int, float, ThreadedRNG64<std::__1::linear_congruential_engine<unsigned long long, 6364136223846793005ull, 1442695040888963407ull, 0ull>, std::__1::random_device>&, int, float*, int*, float*)
00000000000f17f0 T void stochastic_lanczos_quadrature<true, double, PyLinearOperator<double> const, std::__1::identity const&, ThreadedRNG64<SplitMix64, std::__1::random_device> >(PyLinearOperator<double> const*, double const*, int, std::__1::identity const&, int, int, double, ThreadedRNG64<SplitMix64, std::__1::random_device>&, int, double*, int*, double*)
00000000000f3090 T void stochastic_lanczos_quadrature<true, double, PyLinearOperator<double> const, std::__1::identity const&, ThreadedRNG64<Xoshiro256StarStar, std::__1::random_device> >(PyLinearOperator<double> const*, double const*, int, std::__1::identity const&, int, int, double, ThreadedRNG64<Xoshiro256StarStar, std::__1::random_device>&, int, double*, int*, double*)
00000000000f4530 T void stochastic_lanczos_quadrature<true, double, PyLinearOperator<double> const, std::__1::identity const&, ThreadedRNG64<pcg_detail::engine<unsigned long long, unsigned __int128, pcg_detail::xsl_rr_mixin<unsigned long long, unsigned __int128>, false, pcg_detail::specific_stream<unsigned __int128>, pcg_detail::default_multiplier<unsigned __int128> >, std::__1::random_device> >(PyLinearOperator<double> const*, double const*, int, std::__1::identity const&, int, int, double, ThreadedRNG64<pcg_detail::engine<unsigned long long, unsigned __int128, pcg_detail::xsl_rr_mixin<unsigned long long, unsigned __int128>, false, pcg_detail::specific_stream<unsigned __int128>, pcg_detail::default_multiplier<unsigned __int128> >, std::__1::random_device>&, int, double*, int*, double*)
00000000000f4f80 T void stochastic_lanczos_quadrature<true, double, PyLinearOperator<double> const, std::__1::identity const&, ThreadedRNG64<std::__1::mersenne_twister_engine<unsigned long long, 64ul, 312ul, 156ul, 31ul, 13043109905998158313ull, 29ul, 6148914691236517205ull, 17ul, 8202884508482404352ull, 37ul, 18444473444759240704ull, 43ul, 6364136223846793005ull>, std::__1::random_device> >(PyLinearOperator<double> const*, double const*, int, std::__1::identity const&, int, int, double, ThreadedRNG64<std::__1::mersenne_twister_engine<unsigned long long, 64ul, 312ul, 156ul, 31ul, 13043109905998158313ull, 29ul, 6148914691236517205ull, 17ul, 8202884508482404352ull, 37ul, 18444473444759240704ull, 43ul, 6364136223846793005ull>, std::__1::random_device>&, int, double*, int*, double*)
00000000000f3ae0 T void stochastic_lanczos_quadrature<true, double, PyLinearOperator<double> const, std::__1::identity const&, ThreadedRNG64<std::__1::linear_congruential_engine<unsigned long long, 6364136223846793005ull, 1442695040888963407ull, 0ull>, std::__1::random_device> >(PyLinearOperator<double> const*, double const*, int, std::__1::identity const&, int, int, double, ThreadedRNG64<std::__1::linear_congruential_engine<unsigned long long, 6364136223846793005ull, 1442695040888963407ull, 0ull>, std::__1::random_device>&, int, double*, int*, double*)
00000000000fdb30 T void stochastic_lanczos_quadrature<true, double, PyLinearOperator<double> const, void _trace_param_f<true, double, PyLinearOperator<double> >(PyLinearOperator<double> const*, pybind11::array_t<double, 17> const&, unsigned long, int, unsigned long, double, unsigned long, unsigned long, double, double, double, double, unsigned long, unsigned long, int, pybind11::array_t<double, 17>&, pybind11::array_t<double, 17>&, pybind11::array_t<double, 17>&, pybind11::array_t<int, 16>&, pybind11::array_t<int, 16>&, pybind11::array_t<int, 16>&, pybind11::array_t<int, 16>&, double&, pybind11::kwargs const&)::'lambda0'(double) const&, ThreadedRNG64<SplitMix64, std::__1::random_device> >(PyLinearOperator<double>*, double const*, int, void _trace_param_f<true, double, PyLinearOperator<double> >(PyLinearOperator<double> const*, pybind11::array_t<double, 17> const&, unsigned long, int, unsigned long, double, unsigned long, unsigned long, double, double, double, double, unsigned long, unsigned long, int, pybind11::array_t<double, 17>&, pybind11::array_t<double, 17>&, pybind11::array_t<double, 17>&, pybind11::array_t<int, 16>&, pybind11::array_t<int, 16>&, pybind11::array_t<int, 16>&, pybind11::array_t<int, 16>&, double&, pybind11::kwargs const&)::'lambda0'(double) const&, int, int, double, ThreadedRNG64<SplitMix64, std::__1::random_device>&, int, double*, int*, double*)
00000000000fe600 T void stochastic_lanczos_quadrature<true, double, PyLinearOperator<double> const, void _trace_param_f<true, double, PyLinearOperator<double> >(PyLinearOperator<double> const*, pybind11::array_t<double, 17> const&, unsigned long, int, unsigned long, double, unsigned long, unsigned long, double, double, double, double, unsigned long, unsigned long, int, pybind11::array_t<double, 17>&, pybind11::array_t<double, 17>&, pybind11::array_t<double, 17>&, pybind11::array_t<int, 16>&, pybind11::array_t<int, 16>&, pybind11::array_t<int, 16>&, pybind11::array_t<int, 16>&, double&, pybind11::kwargs const&)::'lambda0'(double) const&, ThreadedRNG64<Xoshiro256StarStar, std::__1::random_device> >(PyLinearOperator<double>*, double const*, int, void _trace_param_f<true, double, PyLinearOperator<double> >(PyLinearOperator<double> const*, pybind11::array_t<double, 17> const&, unsigned long, int, unsigned long, double, unsigned long, unsigned long, double, double, double, double, unsigned long, unsigned long, int, pybind11::array_t<double, 17>&, pybind11::array_t<double, 17>&, pybind11::array_t<double, 17>&, pybind11::array_t<int, 16>&, pybind11::array_t<int, 16>&, pybind11::array_t<int, 16>&, pybind11::array_t<int, 16>&, double&, pybind11::kwargs const&)::'lambda0'(double) const&, int, int, double, ThreadedRNG64<Xoshiro256StarStar, std::__1::random_device>&, int, double*, int*, double*)
00000000000ffba0 T void stochastic_lanczos_quadrature<true, double, PyLinearOperator<double> const, void _trace_param_f<true, double, PyLinearOperator<double> >(PyLinearOperator<double> const*, pybind11::array_t<double, 17> const&, unsigned long, int, unsigned long, double, unsigned long, unsigned long, double, double, double, double, unsigned long, unsigned long, int, pybind11::array_t<double, 17>&, pybind11::array_t<double, 17>&, pybind11::array_t<double, 17>&, pybind11::array_t<int, 16>&, pybind11::array_t<int, 16>&, pybind11::array_t<int, 16>&, pybind11::array_t<int, 16>&, double&, pybind11::kwargs const&)::'lambda0'(double) const&, ThreadedRNG64<pcg_detail::engine<unsigned long long, unsigned __int128, pcg_detail::xsl_rr_mixin<unsigned long long, unsigned __int128>, false, pcg_detail::specific_stream<unsigned __int128>, pcg_detail::default_multiplier<unsigned __int128> >, std::__1::random_device> >(PyLinearOperator<double>*, double const*, int, void _trace_param_f<true, double, PyLinearOperator<double> >(PyLinearOperator<double> const*, pybind11::array_t<double, 17> const&, unsigned long, int, unsigned long, double, unsigned long, unsigned long, double, double, double, double, unsigned long, unsigned long, int, pybind11::array_t<double, 17>&, pybind11::array_t<double, 17>&, pybind11::array_t<double, 17>&, pybind11::array_t<int, 16>&, pybind11::array_t<int, 16>&, pybind11::array_t<int, 16>&, pybind11::array_t<int, 16>&, double&, pybind11::kwargs const&)::'lambda0'(double) const&, int, int, double, ThreadedRNG64<pcg_detail::engine<unsigned long long, unsigned __int128, pcg_detail::xsl_rr_mixin<unsigned long long, unsigned __int128>, false, pcg_detail::specific_stream<unsigned __int128>, pcg_detail::default_multiplier<unsigned __int128> >, std::__1::random_device>&, int, double*, int*, double*)
0000000000100670 T void stochastic_lanczos_quadrature<true, double, PyLinearOperator<double> const, void _trace_param_f<true, double, PyLinearOperator<double> >(PyLinearOperator<double> const*, pybind11::array_t<double, 17> const&, unsigned long, int, unsigned long, double, unsigned long, unsigned long, double, double, double, double, unsigned long, unsigned long, int, pybind11::array_t<double, 17>&, pybind11::array_t<double, 17>&, pybind11::array_t<double, 17>&, pybind11::array_t<int, 16>&, pybind11::array_t<int, 16>&, pybind11::array_t<int, 16>&, pybind11::array_t<int, 16>&, double&, pybind11::kwargs const&)::'lambda0'(double) const&, ThreadedRNG64<std::__1::mersenne_twister_engine<unsigned long long, 64ul, 312ul, 156ul, 31ul, 13043109905998158313ull, 29ul, 6148914691236517205ull, 17ul, 8202884508482404352ull, 37ul, 18444473444759240704ull, 43ul, 6364136223846793005ull>, std::__1::random_device> >(PyLinearOperator<double>*, double const*, int, void _trace_param_f<true, double, PyLinearOperator<double> >(PyLinearOperator<double> const*, pybind11::array_t<double, 17> const&, unsigned long, int, unsigned long, double, unsigned long, unsigned long, double, double, double, double, unsigned long, unsigned long, int, pybind11::array_t<double, 17>&, pybind11::array_t<double, 17>&, pybind11::array_t<double, 17>&, pybind11::array_t<int, 16>&, pybind11::array_t<int, 16>&, pybind11::array_t<int, 16>&, pybind11::array_t<int, 16>&, double&, pybind11::kwargs const&)::'lambda0'(double) const&, int, int, double, ThreadedRNG64<std::__1::mersenne_twister_engine<unsigned long long, 64ul, 312ul, 156ul, 31ul, 13043109905998158313ull, 29ul, 6148914691236517205ull, 17ul, 8202884508482404352ull, 37ul, 18444473444759240704ull, 43ul, 6364136223846793005ull>, std::__1::random_device>&, int, double*, int*, double*)
00000000000ff0d0 T void stochastic_lanczos_quadrature<true, double, PyLinearOperator<double> const, void _trace_param_f<true, double, PyLinearOperator<double> >(PyLinearOperator<double> const*, pybind11::array_t<double, 17> const&, unsigned long, int, unsigned long, double, unsigned long, unsigned long, double, double, double, double, unsigned long, unsigned long, int, pybind11::array_t<double, 17>&, pybind11::array_t<double, 17>&, pybind11::array_t<double, 17>&, pybind11::array_t<int, 16>&, pybind11::array_t<int, 16>&, pybind11::array_t<int, 16>&, pybind11::array_t<int, 16>&, double&, pybind11::kwargs const&)::'lambda0'(double) const&, ThreadedRNG64<std::__1::linear_congruential_engine<unsigned long long, 6364136223846793005ull, 1442695040888963407ull, 0ull>, std::__1::random_device> >(PyLinearOperator<double>*, double const*, int, void _trace_param_f<true, double, PyLinearOperator<double> >(PyLinearOperator<double> const*, pybind11::array_t<double, 17> const&, unsigned long, int, unsigned long, double, unsigned long, unsigned long, double, double, double, double, unsigned long, unsigned long, int, pybind11::array_t<double, 17>&, pybind11::array_t<double, 17>&, pybind11::array_t<double, 17>&, pybind11::array_t<int, 16>&, pybind11::array_t<int, 16>&, pybind11::array_t<int, 16>&, pybind11::array_t<int, 16>&, double&, pybind11::kwargs const&)::'lambda0'(double) const&, int, int, double, ThreadedRNG64<std::__1::linear_congruential_engine<unsigned long long, 6364136223846793005ull, 1442695040888963407ull, 0ull>, std::__1::random_device>&, int, double*, int*, double*)
0000000000103990 T void stochastic_lanczos_quadrature<true, double, PyLinearOperator<double> const, void _trace_param_f<true, double, PyLinearOperator<double> >(PyLinearOperator<double> const*, pybind11::array_t<double, 17> const&, unsigned long, int, unsigned long, double, unsigned long, unsigned long, double, double, double, double, unsigned long, unsigned long, int, pybind11::array_t<double, 17>&, pybind11::array_t<double, 17>&, pybind11::array_t<double, 17>&, pybind11::array_t<int, 16>&, pybind11::array_t<int, 16>&, pybind11::array_t<int, 16>&, pybind11::array_t<int, 16>&, double&, pybind11::kwargs const&)::'lambda1'(double) const&, ThreadedRNG64<SplitMix64, std::__1::random_device> >(PyLinearOperator<double>*, double const*, int, void _trace_param_f<true, double, PyLinearOperator<double> >(PyLinearOperator<double> const*, pybind11::array_t<double, 17> const&, unsigned long, int, unsigned long, double, unsigned long, unsigned long, double, double, double, double, unsigned long, unsigned long, int, pybind11::array_t<double, 17>&, pybind11::array_t<double, 17>&, pybind11::array_t<double, 17>&, pybind11::array_t<int, 16>&, pybind11::array_t<int, 16>&, pybind11::array_t<int, 16>&, pybind11::array_t<int, 16>&, double&, pybind11::kwargs const&)::'lambda1'(double) const&, int, int, double, ThreadedRNG64<SplitMix64, std::__1::random_device>&, int, double*, int*, double*)
00000000001043c0 T void stochastic_lanczos_quadrature<true, double, PyLinearOperator<double> const, void _trace_param_f<true, double, PyLinearOperator<double> >(PyLinearOperator<double> const*, pybind11::array_t<double, 17> const&, unsigned long, int, unsigned long, double, unsigned long, unsigned long, double, double, double, double, unsigned long, unsigned long, int, pybind11::array_t<double, 17>&, pybind11::array_t<double, 17>&, pybind11::array_t<double, 17>&, pybind11::array_t<int, 16>&, pybind11::array_t<int, 16>&, pybind11::array_t<int, 16>&, pybind11::array_t<int, 16>&, double&, pybind11::kwargs const&)::'lambda1'(double) const&, ThreadedRNG64<Xoshiro256StarStar, std::__1::random_device> >(PyLinearOperator<double>*, double const*, int, void _trace_param_f<true, double, PyLinearOperator<double> >(PyLinearOperator<double> const*, pybind11::array_t<double, 17> const&, unsigned long, int, unsigned long, double, unsigned long, unsigned long, double, double, double, double, unsigned long, unsigned long, int, pybind11::array_t<double, 17>&, pybind11::array_t<double, 17>&, pybind11::array_t<double, 17>&, pybind11::array_t<int, 16>&, pybind11::array_t<int, 16>&, pybind11::array_t<int, 16>&, pybind11::array_t<int, 16>&, double&, pybind11::kwargs const&)::'lambda1'(double) const&, int, int, double, ThreadedRNG64<Xoshiro256StarStar, std::__1::random_device>&, int, double*, int*, double*)
0000000000105820 T void stochastic_lanczos_quadrature<true, double, PyLinearOperator<double> const, void _trace_param_f<true, double, PyLinearOperator<double> >(PyLinearOperator<double> const*, pybind11::array_t<double, 17> const&, unsigned long, int, unsigned long, double, unsigned long, unsigned long, double, double, double, double, unsigned long, unsigned long, int, pybind11::array_t<double, 17>&, pybind11::array_t<double, 17>&, pybind11::array_t<double, 17>&, pybind11::array_t<int, 16>&, pybind11::array_t<int, 16>&, pybind11::array_t<int, 16>&, pybind11::array_t<int, 16>&, double&, pybind11::kwargs const&)::'lambda1'(double) const&, ThreadedRNG64<pcg_detail::engine<unsigned long long, unsigned __int128, pcg_detail::xsl_rr_mixin<unsigned long long, unsigned __int128>, false, pcg_detail::specific_stream<unsigned __int128>, pcg_detail::default_multiplier<unsigned __int128> >, std::__1::random_device> >(PyLinearOperator<double>*, double const*, int, void _trace_param_f<true, double, PyLinearOperator<double> >(PyLinearOperator<double> const*, pybind11::array_t<double, 17> const&, unsigned long, int, unsigned long, double, unsigned long, unsigned long, double, double, double, double, unsigned long, unsigned long, int, pybind11::array_t<double, 17>&, pybind11::array_t<double, 17>&, pybind11::array_t<double, 17>&, pybind11::array_t<int, 16>&, pybind11::array_t<int, 16>&, pybind11::array_t<int, 16>&, pybind11::array_t<int, 16>&, double&, pybind11::kwargs const&)::'lambda1'(double) const&, int, int, double, ThreadedRNG64<pcg_detail::engine<unsigned long long, unsigned __int128, pcg_detail::xsl_rr_mixin<unsigned long long, unsigned __int128>, false, pcg_detail::specific_stream<unsigned __int128>, pcg_detail::default_multiplier<unsigned __int128> >, std::__1::random_device>&, int, double*, int*, double*)
0000000000106250 T void stochastic_lanczos_quadrature<true, double, PyLinearOperator<double> const, void _trace_param_f<true, double, PyLinearOperator<double> >(PyLinearOperator<double> const*, pybind11::array_t<double, 17> const&, unsigned long, int, unsigned long, double, unsigned long, unsigned long, double, double, double, double, unsigned long, unsigned long, int, pybind11::array_t<double, 17>&, pybind11::array_t<double, 17>&, pybind11::array_t<double, 17>&, pybind11::array_t<int, 16>&, pybind11::array_t<int, 16>&, pybind11::array_t<int, 16>&, pybind11::array_t<int, 16>&, double&, pybind11::kwargs const&)::'lambda1'(double) const&, ThreadedRNG64<std::__1::mersenne_twister_engine<unsigned long long, 64ul, 312ul, 156ul, 31ul, 13043109905998158313ull, 29ul, 6148914691236517205ull, 17ul, 8202884508482404352ull, 37ul, 18444473444759240704ull, 43ul, 6364136223846793005ull>, std::__1::random_device> >(PyLinearOperator<double>*, double const*, int, void _trace_param_f<true, double, PyLinearOperator<double> >(PyLinearOperator<double> const*, pybind11::array_t<double, 17> const&, unsigned long, int, unsigned long, double, unsigned long, unsigned long, double, double, double, double, unsigned long, unsigned long, int, pybind11::array_t<double, 17>&, pybind11::array_t<double, 17>&, pybind11::array_t<double, 17>&, pybind11::array_t<int, 16>&, pybind11::array_t<int, 16>&, pybind11::array_t<int, 16>&, pybind11::array_t<int, 16>&, double&, pybind11::kwargs const&)::'lambda1'(double) const&, int, int, double, ThreadedRNG64<std::__1::mersenne_twister_engine<unsigned long long, 64ul, 312ul, 156ul, 31ul, 13043109905998158313ull, 29ul, 6148914691236517205ull, 17ul, 8202884508482404352ull, 37ul, 18444473444759240704ull, 43ul, 6364136223846793005ull>, std::__1::random_device>&, int, double*, int*, double*)
0000000000104df0 T void stochastic_lanczos_quadrature<true, double, PyLinearOperator<double> const, void _trace_param_f<true, double, PyLinearOperator<double> >(PyLinearOperator<double> const*, pybind11::array_t<double, 17> const&, unsigned long, int, unsigned long, double, unsigned long, unsigned long, double, double, double, double, unsigned long, unsigned long, int, pybind11::array_t<double, 17>&, pybind11::array_t<double, 17>&, pybind11::array_t<double, 17>&, pybind11::array_t<int, 16>&, pybind11::array_t<int, 16>&, pybind11::array_t<int, 16>&, pybind11::array_t<int, 16>&, double&, pybind11::kwargs const&)::'lambda1'(double) const&, ThreadedRNG64<std::__1::linear_congruential_engine<unsigned long long, 6364136223846793005ull, 1442695040888963407ull, 0ull>, std::__1::random_device> >(PyLinearOperator<double>*, double const*, int, void _trace_param_f<true, double, PyLinearOperator<double> >(PyLinearOperator<double> const*, pybind11::array_t<double, 17> const&, unsigned long, int, unsigned long, double, unsigned long, unsigned long, double, double, double, double, unsigned long, unsigned long, int, pybind11::array_t<double, 17>&, pybind11::array_t<double, 17>&, pybind11::array_t<double, 17>&, pybind11::array_t<int, 16>&, pybind11::array_t<int, 16>&, pybind11::array_t<int, 16>&, pybind11::array_t<int, 16>&, double&, pybind11::kwargs const&)::'lambda1'(double) const&, int, int, double, ThreadedRNG64<std::__1::linear_congruential_engine<unsigned long long, 6364136223846793005ull, 1442695040888963407ull, 0ull>, std::__1::random_device>&, int, double*, int*, double*)
00000000000f8220 T void stochastic_lanczos_quadrature<true, double, PyLinearOperator<double> const, void _trace_param_f<true, double, PyLinearOperator<double> >(PyLinearOperator<double> const*, pybind11::array_t<double, 17> const&, unsigned long, int, unsigned long, double, unsigned long, unsigned long, double, double, double, double, unsigned long, unsigned long, int, pybind11::array_t<double, 17>&, pybind11::array_t<double, 17>&, pybind11::array_t<double, 17>&, pybind11::array_t<int, 16>&, pybind11::array_t<int, 16>&, pybind11::array_t<int, 16>&, pybind11::array_t<int, 16>&, double&, pybind11::kwargs const&)::'lambda'(double) const&, ThreadedRNG64<SplitMix64, std::__1::random_device> >(PyLinearOperator<double>*, double const*, int, void _trace_param_f<true, double, PyLinearOperator<double> >(PyLinearOperator<double> const*, pybind11::array_t<double, 17> const&, unsigned long, int, unsigned long, double, unsigned long, unsigned long, double, double, double, double, unsigned long, unsigned long, int, pybind11::array_t<double, 17>&, pybind11::array_t<double, 17>&, pybind11::array_t<double, 17>&, pybind11::array_t<int, 16>&, pybind11::array_t<int, 16>&, pybind11::array_t<int, 16>&, pybind11::array_t<int, 16>&, double&, pybind11::kwargs const&)::'lambda'(double) const&, int, int, double, ThreadedRNG64<SplitMix64, std::__1::random_device>&, int, double*, int*, double*)
00000000000f8be0 T void stochastic_lanczos_quadrature<true, double, PyLinearOperator<double> const, void _trace_param_f<true, double, PyLinearOperator<double> >(PyLinearOperator<double> const*, pybind11::array_t<double, 17> const&, unsigned long, int, unsigned long, double, unsigned long, unsigned long, double, double, double, double, unsigned long, unsigned long, int, pybind11::array_t<double, 17>&, pybind11::array_t<double, 17>&, pybind11::array_t<double, 17>&, pybind11::array_t<int, 16>&, pybind11::array_t<int, 16>&, pybind11::array_t<int, 16>&, pybind11::array_t<int, 16>&, double&, pybind11::kwargs const&)::'lambda'(double) const&, ThreadedRNG64<Xoshiro256StarStar, std::__1::random_device> >(PyLinearOperator<double>*, double const*, int, void _trace_param_f<true, double, PyLinearOperator<double> >(PyLinearOperator<double> const*, pybind11::array_t<double, 17> const&, unsigned long, int, unsigned long, double, unsigned long, unsigned long, double, double, double, double, unsigned long, unsigned long, int, pybind11::array_t<double, 17>&, pybind11::array_t<double, 17>&, pybind11::array_t<double, 17>&, pybind11::array_t<int, 16>&, pybind11::array_t<int, 16>&, pybind11::array_t<int, 16>&, pybind11::array_t<int, 16>&, double&, pybind11::kwargs const&)::'lambda'(double) const&, int, int, double, ThreadedRNG64<Xoshiro256StarStar, std::__1::random_device>&, int, double*, int*, double*)
00000000000f9f60 T void stochastic_lanczos_quadrature<true, double, PyLinearOperator<double> const, void _trace_param_f<true, double, PyLinearOperator<double> >(PyLinearOperator<double> const*, pybind11::array_t<double, 17> const&, unsigned long, int, unsigned long, double, unsigned long, unsigned long, double, double, double, double, unsigned long, unsigned long, int, pybind11::array_t<double, 17>&, pybind11::array_t<double, 17>&, pybind11::array_t<double, 17>&, pybind11::array_t<int, 16>&, pybind11::array_t<int, 16>&, pybind11::array_t<int, 16>&, pybind11::array_t<int, 16>&, double&, pybind11::kwargs const&)::'lambda'(double) const&, ThreadedRNG64<pcg_detail::engine<unsigned long long, unsigned __int128, pcg_detail::xsl_rr_mixin<unsigned long long, unsigned __int128>, false, pcg_detail::specific_stream<unsigned __int128>, pcg_detail::default_multiplier<unsigned __int128> >, std::__1::random_device> >(PyLinearOperator<double>*, double const*, int, void _trace_param_f<true, double, PyLinearOperator<double> >(PyLinearOperator<double> const*, pybind11::array_t<double, 17> const&, unsigned long, int, unsigned long, double, unsigned long, unsigned long, double, double, double, double, unsigned long, unsigned long, int, pybind11::array_t<double, 17>&, pybind11::array_t<double, 17>&, pybind11::array_t<double, 17>&, pybind11::array_t<int, 16>&, pybind11::array_t<int, 16>&, pybind11::array_t<int, 16>&, pybind11::array_t<int, 16>&, double&, pybind11::kwargs const&)::'lambda'(double) const&, int, int, double, ThreadedRNG64<pcg_detail::engine<unsigned long long, unsigned __int128, pcg_detail::xsl_rr_mixin<unsigned long long, unsigned __int128>, false, pcg_detail::specific_stream<unsigned __int128>, pcg_detail::default_multiplier<unsigned __int128> >, std::__1::random_device>&, int, double*, int*, double*)
00000000000fa920 T void stochastic_lanczos_quadrature<true, double, PyLinearOperator<double> const, void _trace_param_f<true, double, PyLinearOperator<double> >(PyLinearOperator<double> const*, pybind11::array_t<double, 17> const&, unsigned long, int, unsigned long, double, unsigned long, unsigned long, double, double, double, double, unsigned long, unsigned long, int, pybind11::array_t<double, 17>&, pybind11::array_t<double, 17>&, pybind11::array_t<double, 17>&, pybind11::array_t<int, 16>&, pybind11::array_t<int, 16>&, pybind11::array_t<int, 16>&, pybind11::array_t<int, 16>&, double&, pybind11::kwargs const&)::'lambda'(double) const&, ThreadedRNG64<std::__1::mersenne_twister_engine<unsigned long long, 64ul, 312ul, 156ul, 31ul, 13043109905998158313ull, 29ul, 6148914691236517205ull, 17ul, 8202884508482404352ull, 37ul, 18444473444759240704ull, 43ul, 6364136223846793005ull>, std::__1::random_device> >(PyLinearOperator<double>*, double const*, int, void _trace_param_f<true, double, PyLinearOperator<double> >(PyLinearOperator<double> const*, pybind11::array_t<double, 17> const&, unsigned long, int, unsigned long, double, unsigned long, unsigned long, double, double, double, double, unsigned long, unsigned long, int, pybind11::array_t<double, 17>&, pybind11::array_t<double, 17>&, pybind11::array_t<double, 17>&, pybind11::array_t<int, 16>&, pybind11::array_t<int, 16>&, pybind11::array_t<int, 16>&, pybind11::array_t<int, 16>&, double&, pybind11::kwargs const&)::'lambda'(double) const&, int, int, double, ThreadedRNG64<std::__1::mersenne_twister_engine<unsigned long long, 64ul, 312ul, 156ul, 31ul, 13043109905998158313ull, 29ul, 6148914691236517205ull, 17ul, 8202884508482404352ull, 37ul, 18444473444759240704ull, 43ul, 6364136223846793005ull>, std::__1::random_device>&, int, double*, int*, double*)
00000000000f95a0 T void stochastic_lanczos_quadrature<true, double, PyLinearOperator<double> const, void _trace_param_f<true, double, PyLinearOperator<double> >(PyLinearOperator<double> const*, pybind11::array_t<double, 17> const&, unsigned long, int, unsigned long, double, unsigned long, unsigned long, double, double, double, double, unsigned long, unsigned long, int, pybind11::array_t<double, 17>&, pybind11::array_t<double, 17>&, pybind11::array_t<double, 17>&, pybind11::array_t<int, 16>&, pybind11::array_t<int, 16>&, pybind11::array_t<int, 16>&, pybind11::array_t<int, 16>&, double&, pybind11::kwargs const&)::'lambda'(double) const&, ThreadedRNG64<std::__1::linear_congruential_engine<unsigned long long, 6364136223846793005ull, 1442695040888963407ull, 0ull>, std::__1::random_device> >(PyLinearOperator<double>*, double const*, int, void _trace_param_f<true, double, PyLinearOperator<double> >(PyLinearOperator<double> const*, pybind11::array_t<double, 17> const&, unsigned long, int, unsigned long, double, unsigned long, unsigned long, double, double, double, double, unsigned long, unsigned long, int, pybind11::array_t<double, 17>&, pybind11::array_t<double, 17>&, pybind11::array_t<double, 17>&, pybind11::array_t<int, 16>&, pybind11::array_t<int, 16>&, pybind11::array_t<int, 16>&, pybind11::array_t<int, 16>&, double&, pybind11::kwargs const&)::'lambda'(double) const&, int, int, double, ThreadedRNG64<std::__1::linear_congruential_engine<unsigned long long, 6364136223846793005ull, 1442695040888963407ull, 0ull>, std::__1::random_device>&, int, double*, int*, double*)
00000000000bd570 T void stochastic_lanczos_quadrature<true, double, DenseEigenLinearOperator<double> const, std::__1::identity const&, ThreadedRNG64<SplitMix64, std::__1::random_device> >(DenseEigenLinearOperator<double> const*, double const*, int, std::__1::identity const&, int, int, double, ThreadedRNG64<SplitMix64, std::__1::random_device>&, int, double*, int*, double*)
00000000000bf620 T void stochastic_lanczos_quadrature<true, double, DenseEigenLinearOperator<double> const, std::__1::identity const&, ThreadedRNG64<Xoshiro256StarStar, std::__1::random_device> >(DenseEigenLinearOperator<double> const*, double const*, int, std::__1::identity const&, int, int, double, ThreadedRNG64<Xoshiro256StarStar, std::__1::random_device>&, int, double*, int*, double*)
00000000000c0a80 T void stochastic_lanczos_quadrature<true, double, DenseEigenLinearOperator<double> const, std::__1::identity const&, ThreadedRNG64<pcg_detail::engine<unsigned long long, unsigned __int128, pcg_detail::xsl_rr_mixin<unsigned long long, unsigned __int128>, false, pcg_detail::specific_stream<unsigned __int128>, pcg_detail::default_multiplier<unsigned __int128> >, std::__1::random_device> >(DenseEigenLinearOperator<double> const*, double const*, int, std::__1::identity const&, int, int, double, ThreadedRNG64<pcg_detail::engine<unsigned long long, unsigned __int128, pcg_detail::xsl_rr_mixin<unsigned long long, unsigned __int128>, false, pcg_detail::specific_stream<unsigned __int128>, pcg_detail::default_multiplier<unsigned __int128> >, std::__1::random_device>&, int, double*, int*, double*)
00000000000c14b0 T void stochastic_lanczos_quadrature<true, double, DenseEigenLinearOperator<double> const, std::__1::identity const&, ThreadedRNG64<std::__1::mersenne_twister_engine<unsigned long long, 64ul, 312ul, 156ul, 31ul, 13043109905998158313ull, 29ul, 6148914691236517205ull, 17ul, 8202884508482404352ull, 37ul, 18444473444759240704ull, 43ul, 6364136223846793005ull>, std::__1::random_device> >(DenseEigenLinearOperator<double> const*, double const*, int, std::__1::identity const&, int, int, double, ThreadedRNG64<std::__1::mersenne_twister_engine<unsigned long long, 64ul, 312ul, 156ul, 31ul, 13043109905998158313ull, 29ul, 6148914691236517205ull, 17ul, 8202884508482404352ull, 37ul, 18444473444759240704ull, 43ul, 6364136223846793005ull>, std::__1::random_device>&, int, double*, int*, double*)
00000000000c0050 T void stochastic_lanczos_quadrature<true, double, DenseEigenLinearOperator<double> const, std::__1::identity const&, ThreadedRNG64<std::__1::linear_congruential_engine<unsigned long long, 6364136223846793005ull, 1442695040888963407ull, 0ull>, std::__1::random_device> >(DenseEigenLinearOperator<double> const*, double const*, int, std::__1::identity const&, int, int, double, ThreadedRNG64<std::__1::linear_congruential_engine<unsigned long long, 6364136223846793005ull, 1442695040888963407ull, 0ull>, std::__1::random_device>&, int, double*, int*, double*)
00000000000ca040 T void stochastic_lanczos_quadrature<true, double, DenseEigenLinearOperator<double> const, void _trace_param_f<true, double, DenseEigenLinearOperator<double> >(DenseEigenLinearOperator<double> const*, pybind11::array_t<double, 17> const&, unsigned long, int, unsigned long, double, unsigned long, unsigned long, double, double, double, double, unsigned long, unsigned long, int, pybind11::array_t<double, 17>&, pybind11::array_t<double, 17>&, pybind11::array_t<double, 17>&, pybind11::array_t<int, 16>&, pybind11::array_t<int, 16>&, pybind11::array_t<int, 16>&, pybind11::array_t<int, 16>&, double&, pybind11::kwargs const&)::'lambda0'(double) const&, ThreadedRNG64<SplitMix64, std::__1::random_device> >(DenseEigenLinearOperator<double>*, double const*, int, void _trace_param_f<true, double, DenseEigenLinearOperator<double> >(DenseEigenLinearOperator<double> const*, pybind11::array_t<double, 17> const&, unsigned long, int, unsigned long, double, unsigned long, unsigned long, double, double, double, double, unsigned long, unsigned long, int, pybind11::array_t<double, 17>&, pybind11::array_t<double, 17>&, pybind11::array_t<double, 17>&, pybind11::array_t<int, 16>&, pybind11::array_t<int, 16>&, pybind11::array_t<int, 16>&, pybind11::array_t<int, 16>&, double&, pybind11::kwargs const&)::'lambda0'(double) const&, int, int, double, ThreadedRNG64<SplitMix64, std::__1::random_device>&, int, double*, int*, double*)
00000000000caaf0 T void stochastic_lanczos_quadrature<true, double, DenseEigenLinearOperator<double> const, void _trace_param_f<true, double, DenseEigenLinearOperator<double> >(DenseEigenLinearOperator<double> const*, pybind11::array_t<double, 17> const&, unsigned long, int, unsigned long, double, unsigned long, unsigned long, double, double, double, double, unsigned long, unsigned long, int, pybind11::array_t<double, 17>&, pybind11::array_t<double, 17>&, pybind11::array_t<double, 17>&, pybind11::array_t<int, 16>&, pybind11::array_t<int, 16>&, pybind11::array_t<int, 16>&, pybind11::array_t<int, 16>&, double&, pybind11::kwargs const&)::'lambda0'(double) const&, ThreadedRNG64<Xoshiro256StarStar, std::__1::random_device> >(DenseEigenLinearOperator<double>*, double const*, int, void _trace_param_f<true, double, DenseEigenLinearOperator<double> >(DenseEigenLinearOperator<double> const*, pybind11::array_t<double, 17> const&, unsigned long, int, unsigned long, double, unsigned long, unsigned long, double, double, double, double, unsigned long, unsigned long, int, pybind11::array_t<double, 17>&, pybind11::array_t<double, 17>&, pybind11::array_t<double, 17>&, pybind11::array_t<int, 16>&, pybind11::array_t<int, 16>&, pybind11::array_t<int, 16>&, pybind11::array_t<int, 16>&, double&, pybind11::kwargs const&)::'lambda0'(double) const&, int, int, double, ThreadedRNG64<Xoshiro256StarStar, std::__1::random_device>&, int, double*, int*, double*)
00000000000cc050 T void stochastic_lanczos_quadrature<true, double, DenseEigenLinearOperator<double> const, void _trace_param_f<true, double, DenseEigenLinearOperator<double> >(DenseEigenLinearOperator<double> const*, pybind11::array_t<double, 17> const&, unsigned long, int, unsigned long, double, unsigned long, unsigned long, double, double, double, double, unsigned long, unsigned long, int, pybind11::array_t<double, 17>&, pybind11::array_t<double, 17>&, pybind11::array_t<double, 17>&, pybind11::array_t<int, 16>&, pybind11::array_t<int, 16>&, pybind11::array_t<int, 16>&, pybind11::array_t<int, 16>&, double&, pybind11::kwargs const&)::'lambda0'(double) const&, ThreadedRNG64<pcg_detail::engine<unsigned long long, unsigned __int128, pcg_detail::xsl_rr_mixin<unsigned long long, unsigned __int128>, false, pcg_detail::specific_stream<unsigned __int128>, pcg_detail::default_multiplier<unsigned __int128> >, std::__1::random_device> >(DenseEigenLinearOperator<double>*, double const*, int, void _trace_param_f<true, double, DenseEigenLinearOperator<double> >(DenseEigenLinearOperator<double> const*, pybind11::array_t<double, 17> const&, unsigned long, int, unsigned long, double, unsigned long, unsigned long, double, double, double, double, unsigned long, unsigned long, int, pybind11::array_t<double, 17>&, pybind11::array_t<double, 17>&, pybind11::array_t<double, 17>&, pybind11::array_t<int, 16>&, pybind11::array_t<int, 16>&, pybind11::array_t<int, 16>&, pybind11::array_t<int, 16>&, double&, pybind11::kwargs const&)::'lambda0'(double) const&, int, int, double, ThreadedRNG64<pcg_detail::engine<unsigned long long, unsigned __int128, pcg_detail::xsl_rr_mixin<unsigned long long, unsigned __int128>, false, pcg_detail::specific_stream<unsigned __int128>, pcg_detail::default_multiplier<unsigned __int128> >, std::__1::random_device>&, int, double*, int*, double*)
00000000000ccb00 T void stochastic_lanczos_quadrature<true, double, DenseEigenLinearOperator<double> const, void _trace_param_f<true, double, DenseEigenLinearOperator<double> >(DenseEigenLinearOperator<double> const*, pybind11::array_t<double, 17> const&, unsigned long, int, unsigned long, double, unsigned long, unsigned long, double, double, double, double, unsigned long, unsigned long, int, pybind11::array_t<double, 17>&, pybind11::array_t<double, 17>&, pybind11::array_t<double, 17>&, pybind11::array_t<int, 16>&, pybind11::array_t<int, 16>&, pybind11::array_t<int, 16>&, pybind11::array_t<int, 16>&, double&, pybind11::kwargs const&)::'lambda0'(double) const&, ThreadedRNG64<std::__1::mersenne_twister_engine<unsigned long long, 64ul, 312ul, 156ul, 31ul, 13043109905998158313ull, 29ul, 6148914691236517205ull, 17ul, 8202884508482404352ull, 37ul, 18444473444759240704ull, 43ul, 6364136223846793005ull>, std::__1::random_device> >(DenseEigenLinearOperator<double>*, double const*, int, void _trace_param_f<true, double, DenseEigenLinearOperator<double> >(DenseEigenLinearOperator<double> const*, pybind11::array_t<double, 17> const&, unsigned long, int, unsigned long, double, unsigned long, unsigned long, double, double, double, double, unsigned long, unsigned long, int, pybind11::array_t<double, 17>&, pybind11::array_t<double, 17>&, pybind11::array_t<double, 17>&, pybind11::array_t<int, 16>&, pybind11::array_t<int, 16>&, pybind11::array_t<int, 16>&, pybind11::array_t<int, 16>&, double&, pybind11::kwargs const&)::'lambda0'(double) const&, int, int, double, ThreadedRNG64<std::__1::mersenne_twister_engine<unsigned long long, 64ul, 312ul, 156ul, 31ul, 13043109905998158313ull, 29ul, 6148914691236517205ull, 17ul, 8202884508482404352ull, 37ul, 18444473444759240704ull, 43ul, 6364136223846793005ull>, std::__1::random_device>&, int, double*, int*, double*)
00000000000cb5a0 T void stochastic_lanczos_quadrature<true, double, DenseEigenLinearOperator<double> const, void _trace_param_f<true, double, DenseEigenLinearOperator<double> >(DenseEigenLinearOperator<double> const*, pybind11::array_t<double, 17> const&, unsigned long, int, unsigned long, double, unsigned long, unsigned long, double, double, double, double, unsigned long, unsigned long, int, pybind11::array_t<double, 17>&, pybind11::array_t<double, 17>&, pybind11::array_t<double, 17>&, pybind11::array_t<int, 16>&, pybind11::array_t<int, 16>&, pybind11::array_t<int, 16>&, pybind11::array_t<int, 16>&, double&, pybind11::kwargs const&)::'lambda0'(double) const&, ThreadedRNG64<std::__1::linear_congruential_engine<unsigned long long, 6364136223846793005ull, 1442695040888963407ull, 0ull>, std::__1::random_device> >(DenseEigenLinearOperator<double>*, double const*, int, void _trace_param_f<true, double, DenseEigenLinearOperator<double> >(DenseEigenLinearOperator<double> const*, pybind11::array_t<double, 17> const&, unsigned long, int, unsigned long, double, unsigned long, unsigned long, double, double, double, double, unsigned long, unsigned long, int, pybind11::array_t<double, 17>&, pybind11::array_t<double, 17>&, pybind11::array_t<double, 17>&, pybind11::array_t<int, 16>&, pybind11::array_t<int, 16>&, pybind11::array_t<int, 16>&, pybind11::array_t<int, 16>&, double&, pybind11::kwargs const&)::'lambda0'(double) const&, int, int, double, ThreadedRNG64<std::__1::linear_congruential_engine<unsigned long long, 6364136223846793005ull, 1442695040888963407ull, 0ull>, std::__1::random_device>&, int, double*, int*, double*)
00000000000cfe00 T void stochastic_lanczos_quadrature<true, double, DenseEigenLinearOperator<double> const, void _trace_param_f<true, double, DenseEigenLinearOperator<double> >(DenseEigenLinearOperator<double> const*, pybind11::array_t<double, 17> const&, unsigned long, int, unsigned long, double, unsigned long, unsigned long, double, double, double, double, unsigned long, unsigned long, int, pybind11::array_t<double, 17>&, pybind11::array_t<double, 17>&, pybind11::array_t<double, 17>&, pybind11::array_t<int, 16>&, pybind11::array_t<int, 16>&, pybind11::array_t<int, 16>&, pybind11::array_t<int, 16>&, double&, pybind11::kwargs const&)::'lambda1'(double) const&, ThreadedRNG64<SplitMix64, std::__1::random_device> >(DenseEigenLinearOperator<double>*, double const*, int, void _trace_param_f<true, double, DenseEigenLinearOperator<double> >(DenseEigenLinearOperator<double> const*, pybind11::array_t<double, 17> const&, unsigned long, int, unsigned long, double, unsigned long, unsigned long, double, double, double, double, unsigned long, unsigned long, int, pybind11::array_t<double, 17>&, pybind11::array_t<double, 17>&, pybind11::array_t<double, 17>&, pybind11::array_t<int, 16>&, pybind11::array_t<int, 16>&, pybind11::array_t<int, 16>&, pybind11::array_t<int, 16>&, double&, pybind11::kwargs const&)::'lambda1'(double) const&, int, int, double, ThreadedRNG64<SplitMix64, std::__1::random_device>&, int, double*, int*, double*)
00000000000d0810 T void stochastic_lanczos_quadrature<true, double, DenseEigenLinearOperator<double> const, void _trace_param_f<true, double, DenseEigenLinearOperator<double> >(DenseEigenLinearOperator<double> const*, pybind11::array_t<double, 17> const&, unsigned long, int, unsigned long, double, unsigned long, unsigned long, double, double, double, double, unsigned long, unsigned long, int, pybind11::array_t<double, 17>&, pybind11::array_t<double, 17>&, pybind11::array_t<double, 17>&, pybind11::array_t<int, 16>&, pybind11::array_t<int, 16>&, pybind11::array_t<int, 16>&, pybind11::array_t<int, 16>&, double&, pybind11::kwargs const&)::'lambda1'(double) const&, ThreadedRNG64<Xoshiro256StarStar, std::__1::random_device> >(DenseEigenLinearOperator<double>*, double const*, int, void _trace_param_f<true, double, DenseEigenLinearOperator<double> >(DenseEigenLinearOperator<double> const*, pybind11::array_t<double, 17> const&, unsigned long, int, unsigned long, double, unsigned long, unsigned long, double, double, double, double, unsigned long, unsigned long, int, pybind11::array_t<double, 17>&, pybind11::array_t<double, 17>&, pybind11::array_t<double, 17>&, pybind11::array_t<int, 16>&, pybind11::array_t<int, 16>&, pybind11::array_t<int, 16>&, pybind11::array_t<int, 16>&, double&, pybind11::kwargs const&)::'lambda1'(double) const&, int, int, double, ThreadedRNG64<Xoshiro256StarStar, std::__1::random_device>&, int, double*, int*, double*)
00000000000d1c30 T void stochastic_lanczos_quadrature<true, double, DenseEigenLinearOperator<double> const, void _trace_param_f<true, double, DenseEigenLinearOperator<double> >(DenseEigenLinearOperator<double> const*, pybind11::array_t<double, 17> const&, unsigned long, int, unsigned long, double, unsigned long, unsigned long, double, double, double, double, unsigned long, unsigned long, int, pybind11::array_t<double, 17>&, pybind11::array_t<double, 17>&, pybind11::array_t<double, 17>&, pybind11::array_t<int, 16>&, pybind11::array_t<int, 16>&, pybind11::array_t<int, 16>&, pybind11::array_t<int, 16>&, double&, pybind11::kwargs const&)::'lambda1'(double) const&, ThreadedRNG64<pcg_detail::engine<unsigned long long, unsigned __int128, pcg_detail::xsl_rr_mixin<unsigned long long, unsigned __int128>, false, pcg_detail::specific_stream<unsigned __int128>, pcg_detail::default_multiplier<unsigned __int128> >, std::__1::random_device> >(DenseEigenLinearOperator<double>*, double const*, int, void _trace_param_f<true, double, DenseEigenLinearOperator<double> >(DenseEigenLinearOperator<double> const*, pybind11::array_t<double, 17> const&, unsigned long, int, unsigned long, double, unsigned long, unsigned long, double, double, double, double, unsigned long, unsigned long, int, pybind11::array_t<double, 17>&, pybind11::array_t<double, 17>&, pybind11::array_t<double, 17>&, pybind11::array_t<int, 16>&, pybind11::array_t<int, 16>&, pybind11::array_t<int, 16>&, pybind11::array_t<int, 16>&, double&, pybind11::kwargs const&)::'lambda1'(double) const&, int, int, double, ThreadedRNG64<pcg_detail::engine<unsigned long long, unsigned __int128, pcg_detail::xsl_rr_mixin<unsigned long long, unsigned __int128>, false, pcg_detail::specific_stream<unsigned __int128>, pcg_detail::default_multiplier<unsigned __int128> >, std::__1::random_device>&, int, double*, int*, double*)
00000000000d2640 T void stochastic_lanczos_quadrature<true, double, DenseEigenLinearOperator<double> const, void _trace_param_f<true, double, DenseEigenLinearOperator<double> >(DenseEigenLinearOperator<double> const*, pybind11::array_t<double, 17> const&, unsigned long, int, unsigned long, double, unsigned long, unsigned long, double, double, double, double, unsigned long, unsigned long, int, pybind11::array_t<double, 17>&, pybind11::array_t<double, 17>&, pybind11::array_t<double, 17>&, pybind11::array_t<int, 16>&, pybind11::array_t<int, 16>&, pybind11::array_t<int, 16>&, pybind11::array_t<int, 16>&, double&, pybind11::kwargs const&)::'lambda1'(double) const&, ThreadedRNG64<std::__1::mersenne_twister_engine<unsigned long long, 64ul, 312ul, 156ul, 31ul, 13043109905998158313ull, 29ul, 6148914691236517205ull, 17ul, 8202884508482404352ull, 37ul, 18444473444759240704ull, 43ul, 6364136223846793005ull>, std::__1::random_device> >(DenseEigenLinearOperator<double>*, double const*, int, void _trace_param_f<true, double, DenseEigenLinearOperator<double> >(DenseEigenLinearOperator<double> const*, pybind11::array_t<double, 17> const&, unsigned long, int, unsigned long, double, unsigned long, unsigned long, double, double, double, double, unsigned long, unsigned long, int, pybind11::array_t<double, 17>&, pybind11::array_t<double, 17>&, pybind11::array_t<double, 17>&, pybind11::array_t<int, 16>&, pybind11::array_t<int, 16>&, pybind11::array_t<int, 16>&, pybind11::array_t<int, 16>&, double&, pybind11::kwargs const&)::'lambda1'(double) const&, int, int, double, ThreadedRNG64<std::__1::mersenne_twister_engine<unsigned long long, 64ul, 312ul, 156ul, 31ul, 13043109905998158313ull, 29ul, 6148914691236517205ull, 17ul, 8202884508482404352ull, 37ul, 18444473444759240704ull, 43ul, 6364136223846793005ull>, std::__1::random_device>&, int, double*, int*, double*)
00000000000d1220 T void stochastic_lanczos_quadrature<true, double, DenseEigenLinearOperator<double> const, void _trace_param_f<true, double, DenseEigenLinearOperator<double> >(DenseEigenLinearOperator<double> const*, pybind11::array_t<double, 17> const&, unsigned long, int, unsigned long, double, unsigned long, unsigned long, double, double, double, double, unsigned long, unsigned long, int, pybind11::array_t<double, 17>&, pybind11::array_t<double, 17>&, pybind11::array_t<double, 17>&, pybind11::array_t<int, 16>&, pybind11::array_t<int, 16>&, pybind11::array_t<int, 16>&, pybind11::array_t<int, 16>&, double&, pybind11::kwargs const&)::'lambda1'(double) const&, ThreadedRNG64<std::__1::linear_congruential_engine<unsigned long long, 6364136223846793005ull, 1442695040888963407ull, 0ull>, std::__1::random_device> >(DenseEigenLinearOperator<double>*, double const*, int, void _trace_param_f<true, double, DenseEigenLinearOperator<double> >(DenseEigenLinearOperator<double> const*, pybind11::array_t<double, 17> const&, unsigned long, int, unsigned long, double, unsigned long, unsigned long, double, double, double, double, unsigned long, unsigned long, int, pybind11::array_t<double, 17>&, pybind11::array_t<double, 17>&, pybind11::array_t<double, 17>&, pybind11::array_t<int, 16>&, pybind11::array_t<int, 16>&, pybind11::array_t<int, 16>&, pybind11::array_t<int, 16>&, double&, pybind11::kwargs const&)::'lambda1'(double) const&, int, int, double, ThreadedRNG64<std::__1::linear_congruential_engine<unsigned long long, 6364136223846793005ull, 1442695040888963407ull, 0ull>, std::__1::random_device>&, int, double*, int*, double*)
00000000000c4730 T void stochastic_lanczos_quadrature<true, double, DenseEigenLinearOperator<double> const, void _trace_param_f<true, double, DenseEigenLinearOperator<double> >(DenseEigenLinearOperator<double> const*, pybind11::array_t<double, 17> const&, unsigned long, int, unsigned long, double, unsigned long, unsigned long, double, double, double, double, unsigned long, unsigned long, int, pybind11::array_t<double, 17>&, pybind11::array_t<double, 17>&, pybind11::array_t<double, 17>&, pybind11::array_t<int, 16>&, pybind11::array_t<int, 16>&, pybind11::array_t<int, 16>&, pybind11::array_t<int, 16>&, double&, pybind11::kwargs const&)::'lambda'(double) const&, ThreadedRNG64<SplitMix64, std::__1::random_device> >(DenseEigenLinearOperator<double>*, double const*, int, void _trace_param_f<true, double, DenseEigenLinearOperator<double> >(DenseEigenLinearOperator<double> const*, pybind11::array_t<double, 17> const&, unsigned long, int, unsigned long, double, unsigned long, unsigned long, double, double, double, double, unsigned long, unsigned long, int, pybind11::array_t<double, 17>&, pybind11::array_t<double, 17>&, pybind11::array_t<double, 17>&, pybind11::array_t<int, 16>&, pybind11::array_t<int, 16>&, pybind11::array_t<int, 16>&, pybind11::array_t<int, 16>&, double&, pybind11::kwargs const&)::'lambda'(double) const&, int, int, double, ThreadedRNG64<SplitMix64, std::__1::random_device>&, int, double*, int*, double*)
00000000000c50f0 T void stochastic_lanczos_quadrature<true, double, DenseEigenLinearOperator<double> const, void _trace_param_f<true, double, DenseEigenLinearOperator<double> >(DenseEigenLinearOperator<double> const*, pybind11::array_t<double, 17> const&, unsigned long, int, unsigned long, double, unsigned long, unsigned long, double, double, double, double, unsigned long, unsigned long, int, pybind11::array_t<double, 17>&, pybind11::array_t<double, 17>&, pybind11::array_t<double, 17>&, pybind11::array_t<int, 16>&, pybind11::array_t<int, 16>&, pybind11::array_t<int, 16>&, pybind11::array_t<int, 16>&, double&, pybind11::kwargs const&)::'lambda'(double) const&, ThreadedRNG64<Xoshiro256StarStar, std::__1::random_device> >(DenseEigenLinearOperator<double>*, double const*, int, void _trace_param_f<true, double, DenseEigenLinearOperator<double> >(DenseEigenLinearOperator<double> const*, pybind11::array_t<double, 17> const&, unsigned long, int, unsigned long, double, unsigned long, unsigned long, double, double, double, double, unsigned long, unsigned long, int, pybind11::array_t<double, 17>&, pybind11::array_t<double, 17>&, pybind11::array_t<double, 17>&, pybind11::array_t<int, 16>&, pybind11::array_t<int, 16>&, pybind11::array_t<int, 16>&, pybind11::array_t<int, 16>&, double&, pybind11::kwargs const&)::'lambda'(double) const&, int, int, double, ThreadedRNG64<Xoshiro256StarStar, std::__1::random_device>&, int, double*, int*, double*)
00000000000c6470 T void stochastic_lanczos_quadrature<true, double, DenseEigenLinearOperator<double> const, void _trace_param_f<true, double, DenseEigenLinearOperator<double> >(DenseEigenLinearOperator<double> const*, pybind11::array_t<double, 17> const&, unsigned long, int, unsigned long, double, unsigned long, unsigned long, double, double, double, double, unsigned long, unsigned long, int, pybind11::array_t<double, 17>&, pybind11::array_t<double, 17>&, pybind11::array_t<double, 17>&, pybind11::array_t<int, 16>&, pybind11::array_t<int, 16>&, pybind11::array_t<int, 16>&, pybind11::array_t<int, 16>&, double&, pybind11::kwargs const&)::'lambda'(double) const&, ThreadedRNG64<pcg_detail::engine<unsigned long long, unsigned __int128, pcg_detail::xsl_rr_mixin<unsigned long long, unsigned __int128>, false, pcg_detail::specific_stream<unsigned __int128>, pcg_detail::default_multiplier<unsigned __int128> >, std::__1::random_device> >(DenseEigenLinearOperator<double>*, double const*, int, void _trace_param_f<true, double, DenseEigenLinearOperator<double> >(DenseEigenLinearOperator<double> const*, pybind11::array_t<double, 17> const&, unsigned long, int, unsigned long, double, unsigned long, unsigned long, double, double, double, double, unsigned long, unsigned long, int, pybind11::array_t<double, 17>&, pybind11::array_t<double, 17>&, pybind11::array_t<double, 17>&, pybind11::array_t<int, 16>&, pybind11::array_t<int, 16>&, pybind11::array_t<int, 16>&, pybind11::array_t<int, 16>&, double&, pybind11::kwargs const&)::'lambda'(double) const&, int, int, double, ThreadedRNG64<pcg_detail::engine<unsigned long long, unsigned __int128, pcg_detail::xsl_rr_mixin<unsigned long long, unsigned __int128>, false, pcg_detail::specific_stream<unsigned __int128>, pcg_detail::default_multiplier<unsigned __int128> >, std::__1::random_device>&, int, double*, int*, double*)
00000000000c6e30 T void stochastic_lanczos_quadrature<true, double, DenseEigenLinearOperator<double> const, void _trace_param_f<true, double, DenseEigenLinearOperator<double> >(DenseEigenLinearOperator<double> const*, pybind11::array_t<double, 17> const&, unsigned long, int, unsigned long, double, unsigned long, unsigned long, double, double, double, double, unsigned long, unsigned long, int, pybind11::array_t<double, 17>&, pybind11::array_t<double, 17>&, pybind11::array_t<double, 17>&, pybind11::array_t<int, 16>&, pybind11::array_t<int, 16>&, pybind11::array_t<int, 16>&, pybind11::array_t<int, 16>&, double&, pybind11::kwargs const&)::'lambda'(double) const&, ThreadedRNG64<std::__1::mersenne_twister_engine<unsigned long long, 64ul, 312ul, 156ul, 31ul, 13043109905998158313ull, 29ul, 6148914691236517205ull, 17ul, 8202884508482404352ull, 37ul, 18444473444759240704ull, 43ul, 6364136223846793005ull>, std::__1::random_device> >(DenseEigenLinearOperator<double>*, double const*, int, void _trace_param_f<true, double, DenseEigenLinearOperator<double> >(DenseEigenLinearOperator<double> const*, pybind11::array_t<double, 17> const&, unsigned long, int, unsigned long, double, unsigned long, unsigned long, double, double, double, double, unsigned long, unsigned long, int, pybind11::array_t<double, 17>&, pybind11::array_t<double, 17>&, pybind11::array_t<double, 17>&, pybind11::array_t<int, 16>&, pybind11::array_t<int, 16>&, pybind11::array_t<int, 16>&, pybind11::array_t<int, 16>&, double&, pybind11::kwargs const&)::'lambda'(double) const&, int, int, double, ThreadedRNG64<std::__1::mersenne_twister_engine<unsigned long long, 64ul, 312ul, 156ul, 31ul, 13043109905998158313ull, 29ul, 6148914691236517205ull, 17ul, 8202884508482404352ull, 37ul, 18444473444759240704ull, 43ul, 6364136223846793005ull>, std::__1::random_device>&, int, double*, int*, double*)
00000000000c5ab0 T void stochastic_lanczos_quadrature<true, double, DenseEigenLinearOperator<double> const, void _trace_param_f<true, double, DenseEigenLinearOperator<double> >(DenseEigenLinearOperator<double> const*, pybind11::array_t<double, 17> const&, unsigned long, int, unsigned long, double, unsigned long, unsigned long, double, double, double, double, unsigned long, unsigned long, int, pybind11::array_t<double, 17>&, pybind11::array_t<double, 17>&, pybind11::array_t<double, 17>&, pybind11::array_t<int, 16>&, pybind11::array_t<int, 16>&, pybind11::array_t<int, 16>&, pybind11::array_t<int, 16>&, double&, pybind11::kwargs const&)::'lambda'(double) const&, ThreadedRNG64<std::__1::linear_congruential_engine<unsigned long long, 6364136223846793005ull, 1442695040888963407ull, 0ull>, std::__1::random_device> >(DenseEigenLinearOperator<double>*, double const*, int, void _trace_param_f<true, double, DenseEigenLinearOperator<double> >(DenseEigenLinearOperator<double> const*, pybind11::array_t<double, 17> const&, unsigned long, int, unsigned long, double, unsigned long, unsigned long, double, double, double, double, unsigned long, unsigned long, int, pybind11::array_t<double, 17>&, pybind11::array_t<double, 17>&, pybind11::array_t<double, 17>&, pybind11::array_t<int, 16>&, pybind11::array_t<int, 16>&, pybind11::array_t<int, 16>&, pybind11::array_t<int, 16>&, double&, pybind11::kwargs const&)::'lambda'(double) const&, int, int, double, ThreadedRNG64<std::__1::linear_congruential_engine<unsigned long long, 6364136223846793005ull, 1442695040888963407ull, 0ull>, std::__1::random_device>&, int, double*, int*, double*)
0000000000088ea0 T void stochastic_lanczos_quadrature<true, double, SparseEigenLinearOperator<double> const, std::__1::identity const&, ThreadedRNG64<SplitMix64, std::__1::random_device> >(SparseEigenLinearOperator<double> const*, double const*, int, std::__1::identity const&, int, int, double, ThreadedRNG64<SplitMix64, std::__1::random_device>&, int, double*, int*, double*)
000000000008a2a0 T void stochastic_lanczos_quadrature<true, double, SparseEigenLinearOperator<double> const, std::__1::identity const&, ThreadedRNG64<Xoshiro256StarStar, std::__1::random_device> >(SparseEigenLinearOperator<double> const*, double const*, int, std::__1::identity const&, int, int, double, ThreadedRNG64<Xoshiro256StarStar, std::__1::random_device>&, int, double*, int*, double*)
000000000008b700 T void stochastic_lanczos_quadrature<true, double, SparseEigenLinearOperator<double> const, std::__1::identity const&, ThreadedRNG64<pcg_detail::engine<unsigned long long, unsigned __int128, pcg_detail::xsl_rr_mixin<unsigned long long, unsigned __int128>, false, pcg_detail::specific_stream<unsigned __int128>, pcg_detail::default_multiplier<unsigned __int128> >, std::__1::random_device> >(SparseEigenLinearOperator<double> const*, double const*, int, std::__1::identity const&, int, int, double, ThreadedRNG64<pcg_detail::engine<unsigned long long, unsigned __int128, pcg_detail::xsl_rr_mixin<unsigned long long, unsigned __int128>, false, pcg_detail::specific_stream<unsigned __int128>, pcg_detail::default_multiplier<unsigned __int128> >, std::__1::random_device>&, int, double*, int*, double*)
000000000008c130 T void stochastic_lanczos_quadrature<true, double, SparseEigenLinearOperator<double> const, std::__1::identity const&, ThreadedRNG64<std::__1::mersenne_twister_engine<unsigned long long, 64ul, 312ul, 156ul, 31ul, 13043109905998158313ull, 29ul, 6148914691236517205ull, 17ul, 8202884508482404352ull, 37ul, 18444473444759240704ull, 43ul, 6364136223846793005ull>, std::__1::random_device> >(SparseEigenLinearOperator<double> const*, double const*, int, std::__1::identity const&, int, int, double, ThreadedRNG64<std::__1::mersenne_twister_engine<unsigned long long, 64ul, 312ul, 156ul, 31ul, 13043109905998158313ull, 29ul, 6148914691236517205ull, 17ul, 8202884508482404352ull, 37ul, 18444473444759240704ull, 43ul, 6364136223846793005ull>, std::__1::random_device>&, int, double*, int*, double*)
000000000008acd0 T void stochastic_lanczos_quadrature<true, double, SparseEigenLinearOperator<double> const, std::__1::identity const&, ThreadedRNG64<std::__1::linear_congruential_engine<unsigned long long, 6364136223846793005ull, 1442695040888963407ull, 0ull>, std::__1::random_device> >(SparseEigenLinearOperator<double> const*, double const*, int, std::__1::identity const&, int, int, double, ThreadedRNG64<std::__1::linear_congruential_engine<unsigned long long, 6364136223846793005ull, 1442695040888963407ull, 0ull>, std::__1::random_device>&, int, double*, int*, double*)
0000000000094cc0 T void stochastic_lanczos_quadrature<true, double, SparseEigenLinearOperator<double> const, void _trace_param_f<true, double, SparseEigenLinearOperator<double> >(SparseEigenLinearOperator<double> const*, pybind11::array_t<double, 17> const&, unsigned long, int, unsigned long, double, unsigned long, unsigned long, double, double, double, double, unsigned long, unsigned long, int, pybind11::array_t<double, 17>&, pybind11::array_t<double, 17>&, pybind11::array_t<double, 17>&, pybind11::array_t<int, 16>&, pybind11::array_t<int, 16>&, pybind11::array_t<int, 16>&, pybind11::array_t<int, 16>&, double&, pybind11::kwargs const&)::'lambda0'(double) const&, ThreadedRNG64<SplitMix64, std::__1::random_device> >(SparseEigenLinearOperator<double>*, double const*, int, void _trace_param_f<true, double, SparseEigenLinearOperator<double> >(SparseEigenLinearOperator<double> const*, pybind11::array_t<double, 17> const&, unsigned long, int, unsigned long, double, unsigned long, unsigned long, double, double, double, double, unsigned long, unsigned long, int, pybind11::array_t<double, 17>&, pybind11::array_t<double, 17>&, pybind11::array_t<double, 17>&, pybind11::array_t<int, 16>&, pybind11::array_t<int, 16>&, pybind11::array_t<int, 16>&, pybind11::array_t<int, 16>&, double&, pybind11::kwargs const&)::'lambda0'(double) const&, int, int, double, ThreadedRNG64<SplitMix64, std::__1::random_device>&, int, double*, int*, double*)
0000000000095770 T void stochastic_lanczos_quadrature<true, double, SparseEigenLinearOperator<double> const, void _trace_param_f<true, double, SparseEigenLinearOperator<double> >(SparseEigenLinearOperator<double> const*, pybind11::array_t<double, 17> const&, unsigned long, int, unsigned long, double, unsigned long, unsigned long, double, double, double, double, unsigned long, unsigned long, int, pybind11::array_t<double, 17>&, pybind11::array_t<double, 17>&, pybind11::array_t<double, 17>&, pybind11::array_t<int, 16>&, pybind11::array_t<int, 16>&, pybind11::array_t<int, 16>&, pybind11::array_t<int, 16>&, double&, pybind11::kwargs const&)::'lambda0'(double) const&, ThreadedRNG64<Xoshiro256StarStar, std::__1::random_device> >(SparseEigenLinearOperator<double>*, double const*, int, void _trace_param_f<true, double, SparseEigenLinearOperator<double> >(SparseEigenLinearOperator<double> const*, pybind11::array_t<double, 17> const&, unsigned long, int, unsigned long, double, unsigned long, unsigned long, double, double, double, double, unsigned long, unsigned long, int, pybind11::array_t<double, 17>&, pybind11::array_t<double, 17>&, pybind11::array_t<double, 17>&, pybind11::array_t<int, 16>&, pybind11::array_t<int, 16>&, pybind11::array_t<int, 16>&, pybind11::array_t<int, 16>&, double&, pybind11::kwargs const&)::'lambda0'(double) const&, int, int, double, ThreadedRNG64<Xoshiro256StarStar, std::__1::random_device>&, int, double*, int*, double*)
0000000000096cd0 T void stochastic_lanczos_quadrature<true, double, SparseEigenLinearOperator<double> const, void _trace_param_f<true, double, SparseEigenLinearOperator<double> >(SparseEigenLinearOperator<double> const*, pybind11::array_t<double, 17> const&, unsigned long, int, unsigned long, double, unsigned long, unsigned long, double, double, double, double, unsigned long, unsigned long, int, pybind11::array_t<double, 17>&, pybind11::array_t<double, 17>&, pybind11::array_t<double, 17>&, pybind11::array_t<int, 16>&, pybind11::array_t<int, 16>&, pybind11::array_t<int, 16>&, pybind11::array_t<int, 16>&, double&, pybind11::kwargs const&)::'lambda0'(double) const&, ThreadedRNG64<pcg_detail::engine<unsigned long long, unsigned __int128, pcg_detail::xsl_rr_mixin<unsigned long long, unsigned __int128>, false, pcg_detail::specific_stream<unsigned __int128>, pcg_detail::default_multiplier<unsigned __int128> >, std::__1::random_device> >(SparseEigenLinearOperator<double>*, double const*, int, void _trace_param_f<true, double, SparseEigenLinearOperator<double> >(SparseEigenLinearOperator<double> const*, pybind11::array_t<double, 17> const&, unsigned long, int, unsigned long, double, unsigned long, unsigned long, double, double, double, double, unsigned long, unsigned long, int, pybind11::array_t<double, 17>&, pybind11::array_t<double, 17>&, pybind11::array_t<double, 17>&, pybind11::array_t<int, 16>&, pybind11::array_t<int, 16>&, pybind11::array_t<int, 16>&, pybind11::array_t<int, 16>&, double&, pybind11::kwargs const&)::'lambda0'(double) const&, int, int, double, ThreadedRNG64<pcg_detail::engine<unsigned long long, unsigned __int128, pcg_detail::xsl_rr_mixin<unsigned long long, unsigned __int128>, false, pcg_detail::specific_stream<unsigned __int128>, pcg_detail::default_multiplier<unsigned __int128> >, std::__1::random_device>&, int, double*, int*, double*)
0000000000097780 T void stochastic_lanczos_quadrature<true, double, SparseEigenLinearOperator<double> const, void _trace_param_f<true, double, SparseEigenLinearOperator<double> >(SparseEigenLinearOperator<double> const*, pybind11::array_t<double, 17> const&, unsigned long, int, unsigned long, double, unsigned long, unsigned long, double, double, double, double, unsigned long, unsigned long, int, pybind11::array_t<double, 17>&, pybind11::array_t<double, 17>&, pybind11::array_t<double, 17>&, pybind11::array_t<int, 16>&, pybind11::array_t<int, 16>&, pybind11::array_t<int, 16>&, pybind11::array_t<int, 16>&, double&, pybind11::kwargs const&)::'lambda0'(double) const&, ThreadedRNG64<std::__1::mersenne_twister_engine<unsigned long long, 64ul, 312ul, 156ul, 31ul, 13043109905998158313ull, 29ul, 6148914691236517205ull, 17ul, 8202884508482404352ull, 37ul, 18444473444759240704ull, 43ul, 6364136223846793005ull>, std::__1::random_device> >(SparseEigenLinearOperator<double>*, double const*, int, void _trace_param_f<true, double, SparseEigenLinearOperator<double> >(SparseEigenLinearOperator<double> const*, pybind11::array_t<double, 17> const&, unsigned long, int, unsigned long, double, unsigned long, unsigned long, double, double, double, double, unsigned long, unsigned long, int, pybind11::array_t<double, 17>&, pybind11::array_t<double, 17>&, pybind11::array_t<double, 17>&, pybind11::array_t<int, 16>&, pybind11::array_t<int, 16>&, pybind11::array_t<int, 16>&, pybind11::array_t<int, 16>&, double&, pybind11::kwargs const&)::'lambda0'(double) const&, int, int, double, ThreadedRNG64<std::__1::mersenne_twister_engine<unsigned long long, 64ul, 312ul, 156ul, 31ul, 13043109905998158313ull, 29ul, 6148914691236517205ull, 17ul, 8202884508482404352ull, 37ul, 18444473444759240704ull, 43ul, 6364136223846793005ull>, std::__1::random_device>&, int, double*, int*, double*)
0000000000096220 T void stochastic_lanczos_quadrature<true, double, SparseEigenLinearOperator<double> const, void _trace_param_f<true, double, SparseEigenLinearOperator<double> >(SparseEigenLinearOperator<double> const*, pybind11::array_t<double, 17> const&, unsigned long, int, unsigned long, double, unsigned long, unsigned long, double, double, double, double, unsigned long, unsigned long, int, pybind11::array_t<double, 17>&, pybind11::array_t<double, 17>&, pybind11::array_t<double, 17>&, pybind11::array_t<int, 16>&, pybind11::array_t<int, 16>&, pybind11::array_t<int, 16>&, pybind11::array_t<int, 16>&, double&, pybind11::kwargs const&)::'lambda0'(double) const&, ThreadedRNG64<std::__1::linear_congruential_engine<unsigned long long, 6364136223846793005ull, 1442695040888963407ull, 0ull>, std::__1::random_device> >(SparseEigenLinearOperator<double>*, double const*, int, void _trace_param_f<true, double, SparseEigenLinearOperator<double> >(SparseEigenLinearOperator<double> const*, pybind11::array_t<double, 17> const&, unsigned long, int, unsigned long, double, unsigned long, unsigned long, double, double, double, double, unsigned long, unsigned long, int, pybind11::array_t<double, 17>&, pybind11::array_t<double, 17>&, pybind11::array_t<double, 17>&, pybind11::array_t<int, 16>&, pybind11::array_t<int, 16>&, pybind11::array_t<int, 16>&, pybind11::array_t<int, 16>&, double&, pybind11::kwargs const&)::'lambda0'(double) const&, int, int, double, ThreadedRNG64<std::__1::linear_congruential_engine<unsigned long long, 6364136223846793005ull, 1442695040888963407ull, 0ull>, std::__1::random_device>&, int, double*, int*, double*)
000000000009aa80 T void stochastic_lanczos_quadrature<true, double, SparseEigenLinearOperator<double> const, void _trace_param_f<true, double, SparseEigenLinearOperator<double> >(SparseEigenLinearOperator<double> const*, pybind11::array_t<double, 17> const&, unsigned long, int, unsigned long, double, unsigned long, unsigned long, double, double, double, double, unsigned long, unsigned long, int, pybind11::array_t<double, 17>&, pybind11::array_t<double, 17>&, pybind11::array_t<double, 17>&, pybind11::array_t<int, 16>&, pybind11::array_t<int, 16>&, pybind11::array_t<int, 16>&, pybind11::array_t<int, 16>&, double&, pybind11::kwargs const&)::'lambda1'(double) const&, ThreadedRNG64<SplitMix64, std::__1::random_device> >(SparseEigenLinearOperator<double>*, double const*, int, void _trace_param_f<true, double, SparseEigenLinearOperator<double> >(SparseEigenLinearOperator<double> const*, pybind11::array_t<double, 17> const&, unsigned long, int, unsigned long, double, unsigned long, unsigned long, double, double, double, double, unsigned long, unsigned long, int, pybind11::array_t<double, 17>&, pybind11::array_t<double, 17>&, pybind11::array_t<double, 17>&, pybind11::array_t<int, 16>&, pybind11::array_t<int, 16>&, pybind11::array_t<int, 16>&, pybind11::array_t<int, 16>&, double&, pybind11::kwargs const&)::'lambda1'(double) const&, int, int, double, ThreadedRNG64<SplitMix64, std::__1::random_device>&, int, double*, int*, double*)
000000000009b490 T void stochastic_lanczos_quadrature<true, double, SparseEigenLinearOperator<double> const, void _trace_param_f<true, double, SparseEigenLinearOperator<double> >(SparseEigenLinearOperator<double> const*, pybind11::array_t<double, 17> const&, unsigned long, int, unsigned long, double, unsigned long, unsigned long, double, double, double, double, unsigned long, unsigned long, int, pybind11::array_t<double, 17>&, pybind11::array_t<double, 17>&, pybind11::array_t<double, 17>&, pybind11::array_t<int, 16>&, pybind11::array_t<int, 16>&, pybind11::array_t<int, 16>&, pybind11::array_t<int, 16>&, double&, pybind11::kwargs const&)::'lambda1'(double) const&, ThreadedRNG64<Xoshiro256StarStar, std::__1::random_device> >(SparseEigenLinearOperator<double>*, double const*, int, void _trace_param_f<true, double, SparseEigenLinearOperator<double> >(SparseEigenLinearOperator<double> const*, pybind11::array_t<double, 17> const&, unsigned long, int, unsigned long, double, unsigned long, unsigned long, double, double, double, double, unsigned long, unsigned long, int, pybind11::array_t<double, 17>&, pybind11::array_t<double, 17>&, pybind11::array_t<double, 17>&, pybind11::array_t<int, 16>&, pybind11::array_t<int, 16>&, pybind11::array_t<int, 16>&, pybind11::array_t<int, 16>&, double&, pybind11::kwargs const&)::'lambda1'(double) const&, int, int, double, ThreadedRNG64<Xoshiro256StarStar, std::__1::random_device>&, int, double*, int*, double*)
000000000009c8b0 T void stochastic_lanczos_quadrature<true, double, SparseEigenLinearOperator<double> const, void _trace_param_f<true, double, SparseEigenLinearOperator<double> >(SparseEigenLinearOperator<double> const*, pybind11::array_t<double, 17> const&, unsigned long, int, unsigned long, double, unsigned long, unsigned long, double, double, double, double, unsigned long, unsigned long, int, pybind11::array_t<double, 17>&, pybind11::array_t<double, 17>&, pybind11::array_t<double, 17>&, pybind11::array_t<int, 16>&, pybind11::array_t<int, 16>&, pybind11::array_t<int, 16>&, pybind11::array_t<int, 16>&, double&, pybind11::kwargs const&)::'lambda1'(double) const&, ThreadedRNG64<pcg_detail::engine<unsigned long long, unsigned __int128, pcg_detail::xsl_rr_mixin<unsigned long long, unsigned __int128>, false, pcg_detail::specific_stream<unsigned __int128>, pcg_detail::default_multiplier<unsigned __int128> >, std::__1::random_device> >(SparseEigenLinearOperator<double>*, double const*, int, void _trace_param_f<true, double, SparseEigenLinearOperator<double> >(SparseEigenLinearOperator<double> const*, pybind11::array_t<double, 17> const&, unsigned long, int, unsigned long, double, unsigned long, unsigned long, double, double, double, double, unsigned long, unsigned long, int, pybind11::array_t<double, 17>&, pybind11::array_t<double, 17>&, pybind11::array_t<double, 17>&, pybind11::array_t<int, 16>&, pybind11::array_t<int, 16>&, pybind11::array_t<int, 16>&, pybind11::array_t<int, 16>&, double&, pybind11::kwargs const&)::'lambda1'(double) const&, int, int, double, ThreadedRNG64<pcg_detail::engine<unsigned long long, unsigned __int128, pcg_detail::xsl_rr_mixin<unsigned long long, unsigned __int128>, false, pcg_detail::specific_stream<unsigned __int128>, pcg_detail::default_multiplier<unsigned __int128> >, std::__1::random_device>&, int, double*, int*, double*)
000000000009d2c0 T void stochastic_lanczos_quadrature<true, double, SparseEigenLinearOperator<double> const, void _trace_param_f<true, double, SparseEigenLinearOperator<double> >(SparseEigenLinearOperator<double> const*, pybind11::array_t<double, 17> const&, unsigned long, int, unsigned long, double, unsigned long, unsigned long, double, double, double, double, unsigned long, unsigned long, int, pybind11::array_t<double, 17>&, pybind11::array_t<double, 17>&, pybind11::array_t<double, 17>&, pybind11::array_t<int, 16>&, pybind11::array_t<int, 16>&, pybind11::array_t<int, 16>&, pybind11::array_t<int, 16>&, double&, pybind11::kwargs const&)::'lambda1'(double) const&, ThreadedRNG64<std::__1::mersenne_twister_engine<unsigned long long, 64ul, 312ul, 156ul, 31ul, 13043109905998158313ull, 29ul, 6148914691236517205ull, 17ul, 8202884508482404352ull, 37ul, 18444473444759240704ull, 43ul, 6364136223846793005ull>, std::__1::random_device> >(SparseEigenLinearOperator<double>*, double const*, int, void _trace_param_f<true, double, SparseEigenLinearOperator<double> >(SparseEigenLinearOperator<double> const*, pybind11::array_t<double, 17> const&, unsigned long, int, unsigned long, double, unsigned long, unsigned long, double, double, double, double, unsigned long, unsigned long, int, pybind11::array_t<double, 17>&, pybind11::array_t<double, 17>&, pybind11::array_t<double, 17>&, pybind11::array_t<int, 16>&, pybind11::array_t<int, 16>&, pybind11::array_t<int, 16>&, pybind11::array_t<int, 16>&, double&, pybind11::kwargs const&)::'lambda1'(double) const&, int, int, double, ThreadedRNG64<std::__1::mersenne_twister_engine<unsigned long long, 64ul, 312ul, 156ul, 31ul, 13043109905998158313ull, 29ul, 6148914691236517205ull, 17ul, 8202884508482404352ull, 37ul, 18444473444759240704ull, 43ul, 6364136223846793005ull>, std::__1::random_device>&, int, double*, int*, double*)
000000000009bea0 T void stochastic_lanczos_quadrature<true, double, SparseEigenLinearOperator<double> const, void _trace_param_f<true, double, SparseEigenLinearOperator<double> >(SparseEigenLinearOperator<double> const*, pybind11::array_t<double, 17> const&, unsigned long, int, unsigned long, double, unsigned long, unsigned long, double, double, double, double, unsigned long, unsigned long, int, pybind11::array_t<double, 17>&, pybind11::array_t<double, 17>&, pybind11::array_t<double, 17>&, pybind11::array_t<int, 16>&, pybind11::array_t<int, 16>&, pybind11::array_t<int, 16>&, pybind11::array_t<int, 16>&, double&, pybind11::kwargs const&)::'lambda1'(double) const&, ThreadedRNG64<std::__1::linear_congruential_engine<unsigned long long, 6364136223846793005ull, 1442695040888963407ull, 0ull>, std::__1::random_device> >(SparseEigenLinearOperator<double>*, double const*, int, void _trace_param_f<true, double, SparseEigenLinearOperator<double> >(SparseEigenLinearOperator<double> const*, pybind11::array_t<double, 17> const&, unsigned long, int, unsigned long, double, unsigned long, unsigned long, double, double, double, double, unsigned long, unsigned long, int, pybind11::array_t<double, 17>&, pybind11::array_t<double, 17>&, pybind11::array_t<double, 17>&, pybind11::array_t<int, 16>&, pybind11::array_t<int, 16>&, pybind11::array_t<int, 16>&, pybind11::array_t<int, 16>&, double&, pybind11::kwargs const&)::'lambda1'(double) const&, int, int, double, ThreadedRNG64<std::__1::linear_congruential_engine<unsigned long long, 6364136223846793005ull, 1442695040888963407ull, 0ull>, std::__1::random_device>&, int, double*, int*, double*)
000000000008f3b0 T void stochastic_lanczos_quadrature<true, double, SparseEigenLinearOperator<double> const, void _trace_param_f<true, double, SparseEigenLinearOperator<double> >(SparseEigenLinearOperator<double> const*, pybind11::array_t<double, 17> const&, unsigned long, int, unsigned long, double, unsigned long, unsigned long, double, double, double, double, unsigned long, unsigned long, int, pybind11::array_t<double, 17>&, pybind11::array_t<double, 17>&, pybind11::array_t<double, 17>&, pybind11::array_t<int, 16>&, pybind11::array_t<int, 16>&, pybind11::array_t<int, 16>&, pybind11::array_t<int, 16>&, double&, pybind11::kwargs const&)::'lambda'(double) const&, ThreadedRNG64<SplitMix64, std::__1::random_device> >(SparseEigenLinearOperator<double>*, double const*, int, void _trace_param_f<true, double, SparseEigenLinearOperator<double> >(SparseEigenLinearOperator<double> const*, pybind11::array_t<double, 17> const&, unsigned long, int, unsigned long, double, unsigned long, unsigned long, double, double, double, double, unsigned long, unsigned long, int, pybind11::array_t<double, 17>&, pybind11::array_t<double, 17>&, pybind11::array_t<double, 17>&, pybind11::array_t<int, 16>&, pybind11::array_t<int, 16>&, pybind11::array_t<int, 16>&, pybind11::array_t<int, 16>&, double&, pybind11::kwargs const&)::'lambda'(double) const&, int, int, double, ThreadedRNG64<SplitMix64, std::__1::random_device>&, int, double*, int*, double*)
000000000008fd70 T void stochastic_lanczos_quadrature<true, double, SparseEigenLinearOperator<double> const, void _trace_param_f<true, double, SparseEigenLinearOperator<double> >(SparseEigenLinearOperator<double> const*, pybind11::array_t<double, 17> const&, unsigned long, int, unsigned long, double, unsigned long, unsigned long, double, double, double, double, unsigned long, unsigned long, int, pybind11::array_t<double, 17>&, pybind11::array_t<double, 17>&, pybind11::array_t<double, 17>&, pybind11::array_t<int, 16>&, pybind11::array_t<int, 16>&, pybind11::array_t<int, 16>&, pybind11::array_t<int, 16>&, double&, pybind11::kwargs const&)::'lambda'(double) const&, ThreadedRNG64<Xoshiro256StarStar, std::__1::random_device> >(SparseEigenLinearOperator<double>*, double const*, int, void _trace_param_f<true, double, SparseEigenLinearOperator<double> >(SparseEigenLinearOperator<double> const*, pybind11::array_t<double, 17> const&, unsigned long, int, unsigned long, double, unsigned long, unsigned long, double, double, double, double, unsigned long, unsigned long, int, pybind11::array_t<double, 17>&, pybind11::array_t<double, 17>&, pybind11::array_t<double, 17>&, pybind11::array_t<int, 16>&, pybind11::array_t<int, 16>&, pybind11::array_t<int, 16>&, pybind11::array_t<int, 16>&, double&, pybind11::kwargs const&)::'lambda'(double) const&, int, int, double, ThreadedRNG64<Xoshiro256StarStar, std::__1::random_device>&, int, double*, int*, double*)
00000000000910f0 T void stochastic_lanczos_quadrature<true, double, SparseEigenLinearOperator<double> const, void _trace_param_f<true, double, SparseEigenLinearOperator<double> >(SparseEigenLinearOperator<double> const*, pybind11::array_t<double, 17> const&, unsigned long, int, unsigned long, double, unsigned long, unsigned long, double, double, double, double, unsigned long, unsigned long, int, pybind11::array_t<double, 17>&, pybind11::array_t<double, 17>&, pybind11::array_t<double, 17>&, pybind11::array_t<int, 16>&, pybind11::array_t<int, 16>&, pybind11::array_t<int, 16>&, pybind11::array_t<int, 16>&, double&, pybind11::kwargs const&)::'lambda'(double) const&, ThreadedRNG64<pcg_detail::engine<unsigned long long, unsigned __int128, pcg_detail::xsl_rr_mixin<unsigned long long, unsigned __int128>, false, pcg_detail::specific_stream<unsigned __int128>, pcg_detail::default_multiplier<unsigned __int128> >, std::__1::random_device> >(SparseEigenLinearOperator<double>*, double const*, int, void _trace_param_f<true, double, SparseEigenLinearOperator<double> >(SparseEigenLinearOperator<double> const*, pybind11::array_t<double, 17> const&, unsigned long, int, unsigned long, double, unsigned long, unsigned long, double, double, double, double, unsigned long, unsigned long, int, pybind11::array_t<double, 17>&, pybind11::array_t<double, 17>&, pybind11::array_t<double, 17>&, pybind11::array_t<int, 16>&, pybind11::array_t<int, 16>&, pybind11::array_t<int, 16>&, pybind11::array_t<int, 16>&, double&, pybind11::kwargs const&)::'lambda'(double) const&, int, int, double, ThreadedRNG64<pcg_detail::engine<unsigned long long, unsigned __int128, pcg_detail::xsl_rr_mixin<unsigned long long, unsigned __int128>, false, pcg_detail::specific_stream<unsigned __int128>, pcg_detail::default_multiplier<unsigned __int128> >, std::__1::random_device>&, int, double*, int*, double*)
0000000000091ab0 T void stochastic_lanczos_quadrature<true, double, SparseEigenLinearOperator<double> const, void _trace_param_f<true, double, SparseEigenLinearOperator<double> >(SparseEigenLinearOperator<double> const*, pybind11::array_t<double, 17> const&, unsigned long, int, unsigned long, double, unsigned long, unsigned long, double, double, double, double, unsigned long, unsigned long, int, pybind11::array_t<double, 17>&, pybind11::array_t<double, 17>&, pybind11::array_t<double, 17>&, pybind11::array_t<int, 16>&, pybind11::array_t<int, 16>&, pybind11::array_t<int, 16>&, pybind11::array_t<int, 16>&, double&, pybind11::kwargs const&)::'lambda'(double) const&, ThreadedRNG64<std::__1::mersenne_twister_engine<unsigned long long, 64ul, 312ul, 156ul, 31ul, 13043109905998158313ull, 29ul, 6148914691236517205ull, 17ul, 8202884508482404352ull, 37ul, 18444473444759240704ull, 43ul, 6364136223846793005ull>, std::__1::random_device> >(SparseEigenLinearOperator<double>*, double const*, int, void _trace_param_f<true, double, SparseEigenLinearOperator<double> >(SparseEigenLinearOperator<double> const*, pybind11::array_t<double, 17> const&, unsigned long, int, unsigned long, double, unsigned long, unsigned long, double, double, double, double, unsigned long, unsigned long, int, pybind11::array_t<double, 17>&, pybind11::array_t<double, 17>&, pybind11::array_t<double, 17>&, pybind11::array_t<int, 16>&, pybind11::array_t<int, 16>&, pybind11::array_t<int, 16>&, pybind11::array_t<int, 16>&, double&, pybind11::kwargs const&)::'lambda'(double) const&, int, int, double, ThreadedRNG64<std::__1::mersenne_twister_engine<unsigned long long, 64ul, 312ul, 156ul, 31ul, 13043109905998158313ull, 29ul, 6148914691236517205ull, 17ul, 8202884508482404352ull, 37ul, 18444473444759240704ull, 43ul, 6364136223846793005ull>, std::__1::random_device>&, int, double*, int*, double*)
0000000000090730 T void stochastic_lanczos_quadrature<true, double, SparseEigenLinearOperator<double> const, void _trace_param_f<true, double, SparseEigenLinearOperator<double> >(SparseEigenLinearOperator<double> const*, pybind11::array_t<double, 17> const&, unsigned long, int, unsigned long, double, unsigned long, unsigned long, double, double, double, double, unsigned long, unsigned long, int, pybind11::array_t<double, 17>&, pybind11::array_t<double, 17>&, pybind11::array_t<double, 17>&, pybind11::array_t<int, 16>&, pybind11::array_t<int, 16>&, pybind11::array_t<int, 16>&, pybind11::array_t<int, 16>&, double&, pybind11::kwargs const&)::'lambda'(double) const&, ThreadedRNG64<std::__1::linear_congruential_engine<unsigned long long, 6364136223846793005ull, 1442695040888963407ull, 0ull>, std::__1::random_device> >(SparseEigenLinearOperator<double>*, double const*, int, void _trace_param_f<true, double, SparseEigenLinearOperator<double> >(SparseEigenLinearOperator<double> const*, pybind11::array_t<double, 17> const&, unsigned long, int, unsigned long, double, unsigned long, unsigned long, double, double, double, double, unsigned long, unsigned long, int, pybind11::array_t<double, 17>&, pybind11::array_t<double, 17>&, pybind11::array_t<double, 17>&, pybind11::array_t<int, 16>&, pybind11::array_t<int, 16>&, pybind11::array_t<int, 16>&, pybind11::array_t<int, 16>&, double&, pybind11::kwargs const&)::'lambda'(double) const&, int, int, double, ThreadedRNG64<std::__1::linear_congruential_engine<unsigned long long, 6364136223846793005ull, 1442695040888963407ull, 0ull>, std::__1::random_device>&, int, double*, int*, double*)
00000000000d77c0 T void stochastic_lanczos_quadrature<true, float, PyLinearOperator<float> const, std::__1::identity const&, ThreadedRNG64<SplitMix64, std::__1::random_device> >(PyLinearOperator<float> const*, float const*, int, std::__1::identity const&, int, int, float, ThreadedRNG64<SplitMix64, std::__1::random_device>&, int, float*, int*, float*)
00000000000d94d0 T void stochastic_lanczos_quadrature<true, float, PyLinearOperator<float> const, std::__1::identity const&, ThreadedRNG64<Xoshiro256StarStar, std::__1::random_device> >(PyLinearOperator<float> const*, float const*, int, std::__1::identity const&, int, int, float, ThreadedRNG64<Xoshiro256StarStar, std::__1::random_device>&, int, float*, int*, float*)
00000000000da9b0 T void stochastic_lanczos_quadrature<true, float, PyLinearOperator<float> const, std::__1::identity const&, ThreadedRNG64<pcg_detail::engine<unsigned long long, unsigned __int128, pcg_detail::xsl_rr_mixin<unsigned long long, unsigned __int128>, false, pcg_detail::specific_stream<unsigned __int128>, pcg_detail::default_multiplier<unsigned __int128> >, std::__1::random_device> >(PyLinearOperator<float> const*, float const*, int, std::__1::identity const&, int, int, float, ThreadedRNG64<pcg_detail::engine<unsigned long long, unsigned __int128, pcg_detail::xsl_rr_mixin<unsigned long long, unsigned __int128>, false, pcg_detail::specific_stream<unsigned __int128>, pcg_detail::default_multiplier<unsigned __int128> >, std::__1::random_device>&, int, float*, int*, float*)
00000000000db420 T void stochastic_lanczos_quadrature<true, float, PyLinearOperator<float> const, std::__1::identity const&, ThreadedRNG64<std::__1::mersenne_twister_engine<unsigned long long, 64ul, 312ul, 156ul, 31ul, 13043109905998158313ull, 29ul, 6148914691236517205ull, 17ul, 8202884508482404352ull, 37ul, 18444473444759240704ull, 43ul, 6364136223846793005ull>, std::__1::random_device> >(PyLinearOperator<float> const*, float const*, int, std::__1::identity const&, int, int, float, ThreadedRNG64<std::__1::mersenne_twister_engine<unsigned long long, 64ul, 312ul, 156ul, 31ul, 13043109905998158313ull, 29ul, 6148914691236517205ull, 17ul, 8202884508482404352ull, 37ul, 18444473444759240704ull, 43ul, 6364136223846793005ull>, std::__1::random_device>&, int, float*, int*, float*)
00000000000d9f40 T void stochastic_lanczos_quadrature<true, float, PyLinearOperator<float> const, std::__1::identity const&, ThreadedRNG64<std::__1::linear_congruential_engine<unsigned long long, 6364136223846793005ull, 1442695040888963407ull, 0ull>, std::__1::random_device> >(PyLinearOperator<float> const*, float const*, int, std::__1::identity const&, int, int, float, ThreadedRNG64<std::__1::linear_congruential_engine<unsigned long long, 6364136223846793005ull, 1442695040888963407ull, 0ull>, std::__1::random_device>&, int, float*, int*, float*)
00000000000e3ff0 T void stochastic_lanczos_quadrature<true, float, PyLinearOperator<float> const, void _trace_param_f<true, float, PyLinearOperator<float> >(PyLinearOperator<float> const*, pybind11::array_t<float, 17> const&, unsigned long, int, unsigned long, float, unsigned long, unsigned long, float, float, float, float, unsigned long, unsigned long, int, pybind11::array_t<float, 17>&, pybind11::array_t<float, 17>&, pybind11::array_t<float, 17>&, pybind11::array_t<int, 16>&, pybind11::array_t<int, 16>&, pybind11::array_t<int, 16>&, pybind11::array_t<int, 16>&, float&, pybind11::kwargs const&)::'lambda0'(float) const&, ThreadedRNG64<SplitMix64, std::__1::random_device> >(PyLinearOperator<float>*, float const*, int, void _trace_param_f<true, float, PyLinearOperator<float> >(PyLinearOperator<float> const*, pybind11::array_t<float, 17> const&, unsigned long, int, unsigned long, float, unsigned long, unsigned long, float, float, float, float, unsigned long, unsigned long, int, pybind11::array_t<float, 17>&, pybind11::array_t<float, 17>&, pybind11::array_t<float, 17>&, pybind11::array_t<int, 16>&, pybind11::array_t<int, 16>&, pybind11::array_t<int, 16>&, pybind11::array_t<int, 16>&, float&, pybind11::kwargs const&)::'lambda0'(float) const&, int, int, float, ThreadedRNG64<SplitMix64, std::__1::random_device>&, int, float*, int*, float*)
00000000000e4a80 T void stochastic_lanczos_quadrature<true, float, PyLinearOperator<float> const, void _trace_param_f<true, float, PyLinearOperator<float> >(PyLinearOperator<float> const*, pybind11::array_t<float, 17> const&, unsigned long, int, unsigned long, float, unsigned long, unsigned long, float, float, float, float, unsigned long, unsigned long, int, pybind11::array_t<float, 17>&, pybind11::array_t<float, 17>&, pybind11::array_t<float, 17>&, pybind11::array_t<int, 16>&, pybind11::array_t<int, 16>&, pybind11::array_t<int, 16>&, pybind11::array_t<int, 16>&, float&, pybind11::kwargs const&)::'lambda0'(float) const&, ThreadedRNG64<Xoshiro256StarStar, std::__1::random_device> >(PyLinearOperator<float>*, float const*, int, void _trace_param_f<true, float, PyLinearOperator<float> >(PyLinearOperator<float> const*, pybind11::array_t<float, 17> const&, unsigned long, int, unsigned long, float, unsigned long, unsigned long, float, float, float, float, unsigned long, unsigned long, int, pybind11::array_t<float, 17>&, pybind11::array_t<float, 17>&, pybind11::array_t<float, 17>&, pybind11::array_t<int, 16>&, pybind11::array_t<int, 16>&, pybind11::array_t<int, 16>&, pybind11::array_t<int, 16>&, float&, pybind11::kwargs const&)::'lambda0'(float) const&, int, int, float, ThreadedRNG64<Xoshiro256StarStar, std::__1::random_device>&, int, float*, int*, float*)
00000000000e5fa0 T void stochastic_lanczos_quadrature<true, float, PyLinearOperator<float> const, void _trace_param_f<true, float, PyLinearOperator<float> >(PyLinearOperator<float> const*, pybind11::array_t<float, 17> const&, unsigned long, int, unsigned long, float, unsigned long, unsigned long, float, float, float, float, unsigned long, unsigned long, int, pybind11::array_t<float, 17>&, pybind11::array_t<float, 17>&, pybind11::array_t<float, 17>&, pybind11::array_t<int, 16>&, pybind11::array_t<int, 16>&, pybind11::array_t<int, 16>&, pybind11::array_t<int, 16>&, float&, pybind11::kwargs const&)::'lambda0'(float) const&, ThreadedRNG64<pcg_detail::engine<unsigned long long, unsigned __int128, pcg_detail::xsl_rr_mixin<unsigned long long, unsigned __int128>, false, pcg_detail::specific_stream<unsigned __int128>, pcg_detail::default_multiplier<unsigned __int128> >, std::__1::random_device> >(PyLinearOperator<float>*, float const*, int, void _trace_param_f<true, float, PyLinearOperator<float> >(PyLinearOperator<float> const*, pybind11::array_t<float, 17> const&, unsigned long, int, unsigned long, float, unsigned long, unsigned long, float, float, float, float, unsigned long, unsigned long, int, pybind11::array_t<float, 17>&, pybind11::array_t<float, 17>&, pybind11::array_t<float, 17>&, pybind11::array_t<int, 16>&, pybind11::array_t<int, 16>&, pybind11::array_t<int, 16>&, pybind11::array_t<int, 16>&, float&, pybind11::kwargs const&)::'lambda0'(float) const&, int, int, float, ThreadedRNG64<pcg_detail::engine<unsigned long long, unsigned __int128, pcg_detail::xsl_rr_mixin<unsigned long long, unsigned __int128>, false, pcg_detail::specific_stream<unsigned __int128>, pcg_detail::default_multiplier<unsigned __int128> >, std::__1::random_device>&, int, float*, int*, float*)
00000000000e6a30 T void stochastic_lanczos_quadrature<true, float, PyLinearOperator<float> const, void _trace_param_f<true, float, PyLinearOperator<float> >(PyLinearOperator<float> const*, pybind11::array_t<float, 17> const&, unsigned long, int, unsigned long, float, unsigned long, unsigned long, float, float, float, float, unsigned long, unsigned long, int, pybind11::array_t<float, 17>&, pybind11::array_t<float, 17>&, pybind11::array_t<float, 17>&, pybind11::array_t<int, 16>&, pybind11::array_t<int, 16>&, pybind11::array_t<int, 16>&, pybind11::array_t<int, 16>&, float&, pybind11::kwargs const&)::'lambda0'(float) const&, ThreadedRNG64<std::__1::mersenne_twister_engine<unsigned long long, 64ul, 312ul, 156ul, 31ul, 13043109905998158313ull, 29ul, 6148914691236517205ull, 17ul, 8202884508482404352ull, 37ul, 18444473444759240704ull, 43ul, 6364136223846793005ull>, std::__1::random_device> >(PyLinearOperator<float>*, float const*, int, void _trace_param_f<true, float, PyLinearOperator<float> >(PyLinearOperator<float> const*, pybind11::array_t<float, 17> const&, unsigned long, int, unsigned long, float, unsigned long, unsigned long, float, float, float, float, unsigned long, unsigned long, int, pybind11::array_t<float, 17>&, pybind11::array_t<float, 17>&, pybind11::array_t<float, 17>&, pybind11::array_t<int, 16>&, pybind11::array_t<int, 16>&, pybind11::array_t<int, 16>&, pybind11::array_t<int, 16>&, float&, pybind11::kwargs const&)::'lambda0'(float) const&, int, int, float, ThreadedRNG64<std::__1::mersenne_twister_engine<unsigned long long, 64ul, 312ul, 156ul, 31ul, 13043109905998158313ull, 29ul, 6148914691236517205ull, 17ul, 8202884508482404352ull, 37ul, 18444473444759240704ull, 43ul, 6364136223846793005ull>, std::__1::random_device>&, int, float*, int*, float*)
00000000000e5510 T void stochastic_lanczos_quadrature<true, float, PyLinearOperator<float> const, void _trace_param_f<true, float, PyLinearOperator<float> >(PyLinearOperator<float> const*, pybind11::array_t<float, 17> const&, unsigned long, int, unsigned long, float, unsigned long, unsigned long, float, float, float, float, unsigned long, unsigned long, int, pybind11::array_t<float, 17>&, pybind11::array_t<float, 17>&, pybind11::array_t<float, 17>&, pybind11::array_t<int, 16>&, pybind11::array_t<int, 16>&, pybind11::array_t<int, 16>&, pybind11::array_t<int, 16>&, float&, pybind11::kwargs const&)::'lambda0'(float) const&, ThreadedRNG64<std::__1::linear_congruential_engine<unsigned long long, 6364136223846793005ull, 1442695040888963407ull, 0ull>, std::__1::random_device> >(PyLinearOperator<float>*, float const*, int, void _trace_param_f<true, float, PyLinearOperator<float> >(PyLinearOperator<float> const*, pybind11::array_t<float, 17> const&, unsigned long, int, unsigned long, float, unsigned long, unsigned long, float, float, float, float, unsigned long, unsigned long, int, pybind11::array_t<float, 17>&, pybind11::array_t<float, 17>&, pybind11::array_t<float, 17>&, pybind11::array_t<int, 16>&, pybind11::array_t<int, 16>&, pybind11::array_t<int, 16>&, pybind11::array_t<int, 16>&, float&, pybind11::kwargs const&)::'lambda0'(float) const&, int, int, float, ThreadedRNG64<std::__1::linear_congruential_engine<unsigned long long, 6364136223846793005ull, 1442695040888963407ull, 0ull>, std::__1::random_device>&, int, float*, int*, float*)
00000000000e9d10 T void stochastic_lanczos_quadrature<true, float, PyLinearOperator<float> const, void _trace_param_f<true, float, PyLinearOperator<float> >(PyLinearOperator<float> const*, pybind11::array_t<float, 17> const&, unsigned long, int, unsigned long, float, unsigned long, unsigned long, float, float, float, float, unsigned long, unsigned long, int, pybind11::array_t<float, 17>&, pybind11::array_t<float, 17>&, pybind11::array_t<float, 17>&, pybind11::array_t<int, 16>&, pybind11::array_t<int, 16>&, pybind11::array_t<int, 16>&, pybind11::array_t<int, 16>&, float&, pybind11::kwargs const&)::'lambda1'(float) const&, ThreadedRNG64<SplitMix64, std::__1::random_device> >(PyLinearOperator<float>*, float const*, int, void _trace_param_f<true, float, PyLinearOperator<float> >(PyLinearOperator<float> const*, pybind11::array_t<float, 17> const&, unsigned long, int, unsigned long, float, unsigned long, unsigned long, float, float, float, float, unsigned long, unsigned long, int, pybind11::array_t<float, 17>&, pybind11::array_t<float, 17>&, pybind11::array_t<float, 17>&, pybind11::array_t<int, 16>&, pybind11::array_t<int, 16>&, pybind11::array_t<int, 16>&, pybind11::array_t<int, 16>&, float&, pybind11::kwargs const&)::'lambda1'(float) const&, int, int, float, ThreadedRNG64<SplitMix64, std::__1::random_device>&, int, float*, int*, float*)
00000000000ea750 T void stochastic_lanczos_quadrature<true, float, PyLinearOperator<float> const, void _trace_param_f<true, float, PyLinearOperator<float> >(PyLinearOperator<float> const*, pybind11::array_t<float, 17> const&, unsigned long, int, unsigned long, float, unsigned long, unsigned long, float, float, float, float, unsigned long, unsigned long, int, pybind11::array_t<float, 17>&, pybind11::array_t<float, 17>&, pybind11::array_t<float, 17>&, pybind11::array_t<int, 16>&, pybind11::array_t<int, 16>&, pybind11::array_t<int, 16>&, pybind11::array_t<int, 16>&, float&, pybind11::kwargs const&)::'lambda1'(float) const&, ThreadedRNG64<Xoshiro256StarStar, std::__1::random_device> >(PyLinearOperator<float>*, float const*, int, void _trace_param_f<true, float, PyLinearOperator<float> >(PyLinearOperator<float> const*, pybind11::array_t<float, 17> const&, unsigned long, int, unsigned long, float, unsigned long, unsigned long, float, float, float, float, unsigned long, unsigned long, int, pybind11::array_t<float, 17>&, pybind11::array_t<float, 17>&, pybind11::array_t<float, 17>&, pybind11::array_t<int, 16>&, pybind11::array_t<int, 16>&, pybind11::array_t<int, 16>&, pybind11::array_t<int, 16>&, float&, pybind11::kwargs const&)::'lambda1'(float) const&, int, int, float, ThreadedRNG64<Xoshiro256StarStar, std::__1::random_device>&, int, float*, int*, float*)
00000000000ebbd0 T void stochastic_lanczos_quadrature<true, float, PyLinearOperator<float> const, void _trace_param_f<true, float, PyLinearOperator<float> >(PyLinearOperator<float> const*, pybind11::array_t<float, 17> const&, unsigned long, int, unsigned long, float, unsigned long, unsigned long, float, float, float, float, unsigned long, unsigned long, int, pybind11::array_t<float, 17>&, pybind11::array_t<float, 17>&, pybind11::array_t<float, 17>&, pybind11::array_t<int, 16>&, pybind11::array_t<int, 16>&, pybind11::array_t<int, 16>&, pybind11::array_t<int, 16>&, float&, pybind11::kwargs const&)::'lambda1'(float) const&, ThreadedRNG64<pcg_detail::engine<unsigned long long, unsigned __int128, pcg_detail::xsl_rr_mixin<unsigned long long, unsigned __int128>, false, pcg_detail::specific_stream<unsigned __int128>, pcg_detail::default_multiplier<unsigned __int128> >, std::__1::random_device> >(PyLinearOperator<float>*, float const*, int, void _trace_param_f<true, float, PyLinearOperator<float> >(PyLinearOperator<float> const*, pybind11::array_t<float, 17> const&, unsigned long, int, unsigned long, float, unsigned long, unsigned long, float, float, float, float, unsigned long, unsigned long, int, pybind11::array_t<float, 17>&, pybind11::array_t<float, 17>&, pybind11::array_t<float, 17>&, pybind11::array_t<int, 16>&, pybind11::array_t<int, 16>&, pybind11::array_t<int, 16>&, pybind11::array_t<int, 16>&, float&, pybind11::kwargs const&)::'lambda1'(float) const&, int, int, float, ThreadedRNG64<pcg_detail::engine<unsigned long long, unsigned __int128, pcg_detail::xsl_rr_mixin<unsigned long long, unsigned __int128>, false, pcg_detail::specific_stream<unsigned __int128>, pcg_detail::default_multiplier<unsigned __int128> >, std::__1::random_device>&, int, float*, int*, float*)
00000000000ec610 T void stochastic_lanczos_quadrature<true, float, PyLinearOperator<float> const, void _trace_param_f<true, float, PyLinearOperator<float> >(PyLinearOperator<float> const*, pybind11::array_t<float, 17> const&, unsigned long, int, unsigned long, float, unsigned long, unsigned long, float, float, float, float, unsigned long, unsigned long, int, pybind11::array_t<float, 17>&, pybind11::array_t<float, 17>&, pybind11::array_t<float, 17>&, pybind11::array_t<int, 16>&, pybind11::array_t<int, 16>&, pybind11::array_t<int, 16>&, pybind11::array_t<int, 16>&, float&, pybind11::kwargs const&)::'lambda1'(float) const&, ThreadedRNG64<std::__1::mersenne_twister_engine<unsigned long long, 64ul, 312ul, 156ul, 31ul, 13043109905998158313ull, 29ul, 6148914691236517205ull, 17ul, 8202884508482404352ull, 37ul, 18444473444759240704ull, 43ul, 6364136223846793005ull>, std::__1::random_device> >(PyLinearOperator<float>*, float const*, int, void _trace_param_f<true, float, PyLinearOperator<float> >(PyLinearOperator<float> const*, pybind11::array_t<float, 17> const&, unsigned long, int, unsigned long, float, unsigned long, unsigned long, float, float, float, float, unsigned long, unsigned long, int, pybind11::array_t<float, 17>&, pybind11::array_t<float, 17>&, pybind11::array_t<float, 17>&, pybind11::array_t<int, 16>&, pybind11::array_t<int, 16>&, pybind11::array_t<int, 16>&, pybind11::array_t<int, 16>&, float&, pybind11::kwargs const&)::'lambda1'(float) const&, int, int, float, ThreadedRNG64<std::__1::mersenne_twister_engine<unsigned long long, 64ul, 312ul, 156ul, 31ul, 13043109905998158313ull, 29ul, 6148914691236517205ull, 17ul, 8202884508482404352ull, 37ul, 18444473444759240704ull, 43ul, 6364136223846793005ull>, std::__1::random_device>&, int, float*, int*, float*)
00000000000eb190 T void stochastic_lanczos_quadrature<true, float, PyLinearOperator<float> const, void _trace_param_f<true, float, PyLinearOperator<float> >(PyLinearOperator<float> const*, pybind11::array_t<float, 17> const&, unsigned long, int, unsigned long, float, unsigned long, unsigned long, float, float, float, float, unsigned long, unsigned long, int, pybind11::array_t<float, 17>&, pybind11::array_t<float, 17>&, pybind11::array_t<float, 17>&, pybind11::array_t<int, 16>&, pybind11::array_t<int, 16>&, pybind11::array_t<int, 16>&, pybind11::array_t<int, 16>&, float&, pybind11::kwargs const&)::'lambda1'(float) const&, ThreadedRNG64<std::__1::linear_congruential_engine<unsigned long long, 6364136223846793005ull, 1442695040888963407ull, 0ull>, std::__1::random_device> >(PyLinearOperator<float>*, float const*, int, void _trace_param_f<true, float, PyLinearOperator<float> >(PyLinearOperator<float> const*, pybind11::array_t<float, 17> const&, unsigned long, int, unsigned long, float, unsigned long, unsigned long, float, float, float, float, unsigned long, unsigned long, int, pybind11::array_t<float, 17>&, pybind11::array_t<float, 17>&, pybind11::array_t<float, 17>&, pybind11::array_t<int, 16>&, pybind11::array_t<int, 16>&, pybind11::array_t<int, 16>&, pybind11::array_t<int, 16>&, float&, pybind11::kwargs const&)::'lambda1'(float) const&, int, int, float, ThreadedRNG64<std::__1::linear_congruential_engine<unsigned long long, 6364136223846793005ull, 1442695040888963407ull, 0ull>, std::__1::random_device>&, int, float*, int*, float*)
00000000000de6e0 T void stochastic_lanczos_quadrature<true, float, PyLinearOperator<float> const, void _trace_param_f<true, float, PyLinearOperator<float> >(PyLinearOperator<float> const*, pybind11::array_t<float, 17> const&, unsigned long, int, unsigned long, float, unsigned long, unsigned long, float, float, float, float, unsigned long, unsigned long, int, pybind11::array_t<float, 17>&, pybind11::array_t<float, 17>&, pybind11::array_t<float, 17>&, pybind11::array_t<int, 16>&, pybind11::array_t<int, 16>&, pybind11::array_t<int, 16>&, pybind11::array_t<int, 16>&, float&, pybind11::kwargs const&)::'lambda'(float) const&, ThreadedRNG64<SplitMix64, std::__1::random_device> >(PyLinearOperator<float>*, float const*, int, void _trace_param_f<true, float, PyLinearOperator<float> >(PyLinearOperator<float> const*, pybind11::array_t<float, 17> const&, unsigned long, int, unsigned long, float, unsigned long, unsigned long, float, float, float, float, unsigned long, unsigned long, int, pybind11::array_t<float, 17>&, pybind11::array_t<float, 17>&, pybind11::array_t<float, 17>&, pybind11::array_t<int, 16>&, pybind11::array_t<int, 16>&, pybind11::array_t<int, 16>&, pybind11::array_t<int, 16>&, float&, pybind11::kwargs const&)::'lambda'(float) const&, int, int, float, ThreadedRNG64<SplitMix64, std::__1::random_device>&, int, float*, int*, float*)
00000000000df0a0 T void stochastic_lanczos_quadrature<true, float, PyLinearOperator<float> const, void _trace_param_f<true, float, PyLinearOperator<float> >(PyLinearOperator<float> const*, pybind11::array_t<float, 17> const&, unsigned long, int, unsigned long, float, unsigned long, unsigned long, float, float, float, float, unsigned long, unsigned long, int, pybind11::array_t<float, 17>&, pybind11::array_t<float, 17>&, pybind11::array_t<float, 17>&, pybind11::array_t<int, 16>&, pybind11::array_t<int, 16>&, pybind11::array_t<int, 16>&, pybind11::array_t<int, 16>&, float&, pybind11::kwargs const&)::'lambda'(float) const&, ThreadedRNG64<Xoshiro256StarStar, std::__1::random_device> >(PyLinearOperator<float>*, float const*, int, void _trace_param_f<true, float, PyLinearOperator<float> >(PyLinearOperator<float> const*, pybind11::array_t<float, 17> const&, unsigned long, int, unsigned long, float, unsigned long, unsigned long, float, float, float, float, unsigned long, unsigned long, int, pybind11::array_t<float, 17>&, pybind11::array_t<float, 17>&, pybind11::array_t<float, 17>&, pybind11::array_t<int, 16>&, pybind11::array_t<int, 16>&, pybind11::array_t<int, 16>&, pybind11::array_t<int, 16>&, float&, pybind11::kwargs const&)::'lambda'(float) const&, int, int, float, ThreadedRNG64<Xoshiro256StarStar, std::__1::random_device>&, int, float*, int*, float*)
00000000000e0420 T void stochastic_lanczos_quadrature<true, float, PyLinearOperator<float> const, void _trace_param_f<true, float, PyLinearOperator<float> >(PyLinearOperator<float> const*, pybind11::array_t<float, 17> const&, unsigned long, int, unsigned long, float, unsigned long, unsigned long, float, float, float, float, unsigned long, unsigned long, int, pybind11::array_t<float, 17>&, pybind11::array_t<float, 17>&, pybind11::array_t<float, 17>&, pybind11::array_t<int, 16>&, pybind11::array_t<int, 16>&, pybind11::array_t<int, 16>&, pybind11::array_t<int, 16>&, float&, pybind11::kwargs const&)::'lambda'(float) const&, ThreadedRNG64<pcg_detail::engine<unsigned long long, unsigned __int128, pcg_detail::xsl_rr_mixin<unsigned long long, unsigned __int128>, false, pcg_detail::specific_stream<unsigned __int128>, pcg_detail::default_multiplier<unsigned __int128> >, std::__1::random_device> >(PyLinearOperator<float>*, float const*, int, void _trace_param_f<true, float, PyLinearOperator<float> >(PyLinearOperator<float> const*, pybind11::array_t<float, 17> const&, unsigned long, int, unsigned long, float, unsigned long, unsigned long, float, float, float, float, unsigned long, unsigned long, int, pybind11::array_t<float, 17>&, pybind11::array_t<float, 17>&, pybind11::array_t<float, 17>&, pybind11::array_t<int, 16>&, pybind11::array_t<int, 16>&, pybind11::array_t<int, 16>&, pybind11::array_t<int, 16>&, float&, pybind11::kwargs const&)::'lambda'(float) const&, int, int, float, ThreadedRNG64<pcg_detail::engine<unsigned long long, unsigned __int128, pcg_detail::xsl_rr_mixin<unsigned long long, unsigned __int128>, false, pcg_detail::specific_stream<unsigned __int128>, pcg_detail::default_multiplier<unsigned __int128> >, std::__1::random_device>&, int, float*, int*, float*)
00000000000e0de0 T void stochastic_lanczos_quadrature<true, float, PyLinearOperator<float> const, void _trace_param_f<true, float, PyLinearOperator<float> >(PyLinearOperator<float> const*, pybind11::array_t<float, 17> const&, unsigned long, int, unsigned long, float, unsigned long, unsigned long, float, float, float, float, unsigned long, unsigned long, int, pybind11::array_t<float, 17>&, pybind11::array_t<float, 17>&, pybind11::array_t<float, 17>&, pybind11::array_t<int, 16>&, pybind11::array_t<int, 16>&, pybind11::array_t<int, 16>&, pybind11::array_t<int, 16>&, float&, pybind11::kwargs const&)::'lambda'(float) const&, ThreadedRNG64<std::__1::mersenne_twister_engine<unsigned long long, 64ul, 312ul, 156ul, 31ul, 13043109905998158313ull, 29ul, 6148914691236517205ull, 17ul, 8202884508482404352ull, 37ul, 18444473444759240704ull, 43ul, 6364136223846793005ull>, std::__1::random_device> >(PyLinearOperator<float>*, float const*, int, void _trace_param_f<true, float, PyLinearOperator<float> >(PyLinearOperator<float> const*, pybind11::array_t<float, 17> const&, unsigned long, int, unsigned long, float, unsigned long, unsigned long, float, float, float, float, unsigned long, unsigned long, int, pybind11::array_t<float, 17>&, pybind11::array_t<float, 17>&, pybind11::array_t<float, 17>&, pybind11::array_t<int, 16>&, pybind11::array_t<int, 16>&, pybind11::array_t<int, 16>&, pybind11::array_t<int, 16>&, float&, pybind11::kwargs const&)::'lambda'(float) const&, int, int, float, ThreadedRNG64<std::__1::mersenne_twister_engine<unsigned long long, 64ul, 312ul, 156ul, 31ul, 13043109905998158313ull, 29ul, 6148914691236517205ull, 17ul, 8202884508482404352ull, 37ul, 18444473444759240704ull, 43ul, 6364136223846793005ull>, std::__1::random_device>&, int, float*, int*, float*)
00000000000dfa60 T void stochastic_lanczos_quadrature<true, float, PyLinearOperator<float> const, void _trace_param_f<true, float, PyLinearOperator<float> >(PyLinearOperator<float> const*, pybind11::array_t<float, 17> const&, unsigned long, int, unsigned long, float, unsigned long, unsigned long, float, float, float, float, unsigned long, unsigned long, int, pybind11::array_t<float, 17>&, pybind11::array_t<float, 17>&, pybind11::array_t<float, 17>&, pybind11::array_t<int, 16>&, pybind11::array_t<int, 16>&, pybind11::array_t<int, 16>&, pybind11::array_t<int, 16>&, float&, pybind11::kwargs const&)::'lambda'(float) const&, ThreadedRNG64<std::__1::linear_congruential_engine<unsigned long long, 6364136223846793005ull, 1442695040888963407ull, 0ull>, std::__1::random_device> >(PyLinearOperator<float>*, float const*, int, void _trace_param_f<true, float, PyLinearOperator<float> >(PyLinearOperator<float> const*, pybind11::array_t<float, 17> const&, unsigned long, int, unsigned long, float, unsigned long, unsigned long, float, float, float, float, unsigned long, unsigned long, int, pybind11::array_t<float, 17>&, pybind11::array_t<float, 17>&, pybind11::array_t<float, 17>&, pybind11::array_t<int, 16>&, pybind11::array_t<int, 16>&, pybind11::array_t<int, 16>&, pybind11::array_t<int, 16>&, float&, pybind11::kwargs const&)::'lambda'(float) const&, int, int, float, ThreadedRNG64<std::__1::linear_congruential_engine<unsigned long long, 6364136223846793005ull, 1442695040888963407ull, 0ull>, std::__1::random_device>&, int, float*, int*, float*)
00000000000a2d30 T void stochastic_lanczos_quadrature<true, float, DenseEigenLinearOperator<float> const, std::__1::identity const&, ThreadedRNG64<SplitMix64, std::__1::random_device> >(DenseEigenLinearOperator<float> const*, float const*, int, std::__1::identity const&, int, int, float, ThreadedRNG64<SplitMix64, std::__1::random_device>&, int, float*, int*, float*)
00000000000a4d20 T void stochastic_lanczos_quadrature<true, float, DenseEigenLinearOperator<float> const, std::__1::identity const&, ThreadedRNG64<Xoshiro256StarStar, std::__1::random_device> >(DenseEigenLinearOperator<float> const*, float const*, int, std::__1::identity const&, int, int, float, ThreadedRNG64<Xoshiro256StarStar, std::__1::random_device>&, int, float*, int*, float*)
00000000000a61e0 T void stochastic_lanczos_quadrature<true, float, DenseEigenLinearOperator<float> const, std::__1::identity const&, ThreadedRNG64<pcg_detail::engine<unsigned long long, unsigned __int128, pcg_detail::xsl_rr_mixin<unsigned long long, unsigned __int128>, false, pcg_detail::specific_stream<unsigned __int128>, pcg_detail::default_multiplier<unsigned __int128> >, std::__1::random_device> >(DenseEigenLinearOperator<float> const*, float const*, int, std::__1::identity const&, int, int, float, ThreadedRNG64<pcg_detail::engine<unsigned long long, unsigned __int128, pcg_detail::xsl_rr_mixin<unsigned long long, unsigned __int128>, false, pcg_detail::specific_stream<unsigned __int128>, pcg_detail::default_multiplier<unsigned __int128> >, std::__1::random_device>&, int, float*, int*, float*)
00000000000a6c40 T void stochastic_lanczos_quadrature<true, float, DenseEigenLinearOperator<float> const, std::__1::identity const&, ThreadedRNG64<std::__1::mersenne_twister_engine<unsigned long long, 64ul, 312ul, 156ul, 31ul, 13043109905998158313ull, 29ul, 6148914691236517205ull, 17ul, 8202884508482404352ull, 37ul, 18444473444759240704ull, 43ul, 6364136223846793005ull>, std::__1::random_device> >(DenseEigenLinearOperator<float> const*, float const*, int, std::__1::identity const&, int, int, float, ThreadedRNG64<std::__1::mersenne_twister_engine<unsigned long long, 64ul, 312ul, 156ul, 31ul, 13043109905998158313ull, 29ul, 6148914691236517205ull, 17ul, 8202884508482404352ull, 37ul, 18444473444759240704ull, 43ul, 6364136223846793005ull>, std::__1::random_device>&, int, float*, int*, float*)
00000000000a5780 T void stochastic_lanczos_quadrature<true, float, DenseEigenLinearOperator<float> const, std::__1::identity const&, ThreadedRNG64<std::__1::linear_congruential_engine<unsigned long long, 6364136223846793005ull, 1442695040888963407ull, 0ull>, std::__1::random_device> >(DenseEigenLinearOperator<float> const*, float const*, int, std::__1::identity const&, int, int, float, ThreadedRNG64<std::__1::linear_congruential_engine<unsigned long long, 6364136223846793005ull, 1442695040888963407ull, 0ull>, std::__1::random_device>&, int, float*, int*, float*)
00000000000af7b0 T void stochastic_lanczos_quadrature<true, float, DenseEigenLinearOperator<float> const, void _trace_param_f<true, float, DenseEigenLinearOperator<float> >(DenseEigenLinearOperator<float> const*, pybind11::array_t<float, 17> const&, unsigned long, int, unsigned long, float, unsigned long, unsigned long, float, float, float, float, unsigned long, unsigned long, int, pybind11::array_t<float, 17>&, pybind11::array_t<float, 17>&, pybind11::array_t<float, 17>&, pybind11::array_t<int, 16>&, pybind11::array_t<int, 16>&, pybind11::array_t<int, 16>&, pybind11::array_t<int, 16>&, float&, pybind11::kwargs const&)::'lambda0'(float) const&, ThreadedRNG64<SplitMix64, std::__1::random_device> >(DenseEigenLinearOperator<float>*, float const*, int, void _trace_param_f<true, float, DenseEigenLinearOperator<float> >(DenseEigenLinearOperator<float> const*, pybind11::array_t<float, 17> const&, unsigned long, int, unsigned long, float, unsigned long, unsigned long, float, float, float, float, unsigned long, unsigned long, int, pybind11::array_t<float, 17>&, pybind11::array_t<float, 17>&, pybind11::array_t<float, 17>&, pybind11::array_t<int, 16>&, pybind11::array_t<int, 16>&, pybind11::array_t<int, 16>&, pybind11::array_t<int, 16>&, float&, pybind11::kwargs const&)::'lambda0'(float) const&, int, int, float, ThreadedRNG64<SplitMix64, std::__1::random_device>&, int, float*, int*, float*)
00000000000b0220 T void stochastic_lanczos_quadrature<true, float, DenseEigenLinearOperator<float> const, void _trace_param_f<true, float, DenseEigenLinearOperator<float> >(DenseEigenLinearOperator<float> const*, pybind11::array_t<float, 17> const&, unsigned long, int, unsigned long, float, unsigned long, unsigned long, float, float, float, float, unsigned long, unsigned long, int, pybind11::array_t<float, 17>&, pybind11::array_t<float, 17>&, pybind11::array_t<float, 17>&, pybind11::array_t<int, 16>&, pybind11::array_t<int, 16>&, pybind11::array_t<int, 16>&, pybind11::array_t<int, 16>&, float&, pybind11::kwargs const&)::'lambda0'(float) const&, ThreadedRNG64<Xoshiro256StarStar, std::__1::random_device> >(DenseEigenLinearOperator<float>*, float const*, int, void _trace_param_f<true, float, DenseEigenLinearOperator<float> >(DenseEigenLinearOperator<float> const*, pybind11::array_t<float, 17> const&, unsigned long, int, unsigned long, float, unsigned long, unsigned long, float, float, float, float, unsigned long, unsigned long, int, pybind11::array_t<float, 17>&, pybind11::array_t<float, 17>&, pybind11::array_t<float, 17>&, pybind11::array_t<int, 16>&, pybind11::array_t<int, 16>&, pybind11::array_t<int, 16>&, pybind11::array_t<int, 16>&, float&, pybind11::kwargs const&)::'lambda0'(float) const&, int, int, float, ThreadedRNG64<Xoshiro256StarStar, std::__1::random_device>&, int, float*, int*, float*)
00000000000b1700 T void stochastic_lanczos_quadrature<true, float, DenseEigenLinearOperator<float> const, void _trace_param_f<true, float, DenseEigenLinearOperator<float> >(DenseEigenLinearOperator<float> const*, pybind11::array_t<float, 17> const&, unsigned long, int, unsigned long, float, unsigned long, unsigned long, float, float, float, float, unsigned long, unsigned long, int, pybind11::array_t<float, 17>&, pybind11::array_t<float, 17>&, pybind11::array_t<float, 17>&, pybind11::array_t<int, 16>&, pybind11::array_t<int, 16>&, pybind11::array_t<int, 16>&, pybind11::array_t<int, 16>&, float&, pybind11::kwargs const&)::'lambda0'(float) const&, ThreadedRNG64<pcg_detail::engine<unsigned long long, unsigned __int128, pcg_detail::xsl_rr_mixin<unsigned long long, unsigned __int128>, false, pcg_detail::specific_stream<unsigned __int128>, pcg_detail::default_multiplier<unsigned __int128> >, std::__1::random_device> >(DenseEigenLinearOperator<float>*, float const*, int, void _trace_param_f<true, float, DenseEigenLinearOperator<float> >(DenseEigenLinearOperator<float> const*, pybind11::array_t<float, 17> const&, unsigned long, int, unsigned long, float, unsigned long, unsigned long, float, float, float, float, unsigned long, unsigned long, int, pybind11::array_t<float, 17>&, pybind11::array_t<float, 17>&, pybind11::array_t<float, 17>&, pybind11::array_t<int, 16>&, pybind11::array_t<int, 16>&, pybind11::array_t<int, 16>&, pybind11::array_t<int, 16>&, float&, pybind11::kwargs const&)::'lambda0'(float) const&, int, int, float, ThreadedRNG64<pcg_detail::engine<unsigned long long, unsigned __int128, pcg_detail::xsl_rr_mixin<unsigned long long, unsigned __int128>, false, pcg_detail::specific_stream<unsigned __int128>, pcg_detail::default_multiplier<unsigned __int128> >, std::__1::random_device>&, int, float*, int*, float*)
00000000000b2170 T void stochastic_lanczos_quadrature<true, float, DenseEigenLinearOperator<float> const, void _trace_param_f<true, float, DenseEigenLinearOperator<float> >(DenseEigenLinearOperator<float> const*, pybind11::array_t<float, 17> const&, unsigned long, int, unsigned long, float, unsigned long, unsigned long, float, float, float, float, unsigned long, unsigned long, int, pybind11::array_t<float, 17>&, pybind11::array_t<float, 17>&, pybind11::array_t<float, 17>&, pybind11::array_t<int, 16>&, pybind11::array_t<int, 16>&, pybind11::array_t<int, 16>&, pybind11::array_t<int, 16>&, float&, pybind11::kwargs const&)::'lambda0'(float) const&, ThreadedRNG64<std::__1::mersenne_twister_engine<unsigned long long, 64ul, 312ul, 156ul, 31ul, 13043109905998158313ull, 29ul, 6148914691236517205ull, 17ul, 8202884508482404352ull, 37ul, 18444473444759240704ull, 43ul, 6364136223846793005ull>, std::__1::random_device> >(DenseEigenLinearOperator<float>*, float const*, int, void _trace_param_f<true, float, DenseEigenLinearOperator<float> >(DenseEigenLinearOperator<float> const*, pybind11::array_t<float, 17> const&, unsigned long, int, unsigned long, float, unsigned long, unsigned long, float, float, float, float, unsigned long, unsigned long, int, pybind11::array_t<float, 17>&, pybind11::array_t<float, 17>&, pybind11::array_t<float, 17>&, pybind11::array_t<int, 16>&, pybind11::array_t<int, 16>&, pybind11::array_t<int, 16>&, pybind11::array_t<int, 16>&, float&, pybind11::kwargs const&)::'lambda0'(float) const&, int, int, float, ThreadedRNG64<std::__1::mersenne_twister_engine<unsigned long long, 64ul, 312ul, 156ul, 31ul, 13043109905998158313ull, 29ul, 6148914691236517205ull, 17ul, 8202884508482404352ull, 37ul, 18444473444759240704ull, 43ul, 6364136223846793005ull>, std::__1::random_device>&, int, float*, int*, float*)
00000000000b0c90 T void stochastic_lanczos_quadrature<true, float, DenseEigenLinearOperator<float> const, void _trace_param_f<true, float, DenseEigenLinearOperator<float> >(DenseEigenLinearOperator<float> const*, pybind11::array_t<float, 17> const&, unsigned long, int, unsigned long, float, unsigned long, unsigned long, float, float, float, float, unsigned long, unsigned long, int, pybind11::array_t<float, 17>&, pybind11::array_t<float, 17>&, pybind11::array_t<float, 17>&, pybind11::array_t<int, 16>&, pybind11::array_t<int, 16>&, pybind11::array_t<int, 16>&, pybind11::array_t<int, 16>&, float&, pybind11::kwargs const&)::'lambda0'(float) const&, ThreadedRNG64<std::__1::linear_congruential_engine<unsigned long long, 6364136223846793005ull, 1442695040888963407ull, 0ull>, std::__1::random_device> >(DenseEigenLinearOperator<float>*, float const*, int, void _trace_param_f<true, float, DenseEigenLinearOperator<float> >(DenseEigenLinearOperator<float> const*, pybind11::array_t<float, 17> const&, unsigned long, int, unsigned long, float, unsigned long, unsigned long, float, float, float, float, unsigned long, unsigned long, int, pybind11::array_t<float, 17>&, pybind11::array_t<float, 17>&, pybind11::array_t<float, 17>&, pybind11::array_t<int, 16>&, pybind11::array_t<int, 16>&, pybind11::array_t<int, 16>&, pybind11::array_t<int, 16>&, float&, pybind11::kwargs const&)::'lambda0'(float) const&, int, int, float, ThreadedRNG64<std::__1::linear_congruential_engine<unsigned long long, 6364136223846793005ull, 1442695040888963407ull, 0ull>, std::__1::random_device>&, int, float*, int*, float*)
00000000000b5430 T void stochastic_lanczos_quadrature<true, float, DenseEigenLinearOperator<float> const, void _trace_param_f<true, float, DenseEigenLinearOperator<float> >(DenseEigenLinearOperator<float> const*, pybind11::array_t<float, 17> const&, unsigned long, int, unsigned long, float, unsigned long, unsigned long, float, float, float, float, unsigned long, unsigned long, int, pybind11::array_t<float, 17>&, pybind11::array_t<float, 17>&, pybind11::array_t<float, 17>&, pybind11::array_t<int, 16>&, pybind11::array_t<int, 16>&, pybind11::array_t<int, 16>&, pybind11::array_t<int, 16>&, float&, pybind11::kwargs const&)::'lambda1'(float) const&, ThreadedRNG64<SplitMix64, std::__1::random_device> >(DenseEigenLinearOperator<float>*, float const*, int, void _trace_param_f<true, float, DenseEigenLinearOperator<float> >(DenseEigenLinearOperator<float> const*, pybind11::array_t<float, 17> const&, unsigned long, int, unsigned long, float, unsigned long, unsigned long, float, float, float, float, unsigned long, unsigned long, int, pybind11::array_t<float, 17>&, pybind11::array_t<float, 17>&, pybind11::array_t<float, 17>&, pybind11::array_t<int, 16>&, pybind11::array_t<int, 16>&, pybind11::array_t<int, 16>&, pybind11::array_t<int, 16>&, float&, pybind11::kwargs const&)::'lambda1'(float) const&, int, int, float, ThreadedRNG64<SplitMix64, std::__1::random_device>&, int, float*, int*, float*)
00000000000b5e60 T void stochastic_lanczos_quadrature<true, float, DenseEigenLinearOperator<float> const, void _trace_param_f<true, float, DenseEigenLinearOperator<float> >(DenseEigenLinearOperator<float> const*, pybind11::array_t<float, 17> const&, unsigned long, int, unsigned long, float, unsigned long, unsigned long, float, float, float, float, unsigned long, unsigned long, int, pybind11::array_t<float, 17>&, pybind11::array_t<float, 17>&, pybind11::array_t<float, 17>&, pybind11::array_t<int, 16>&, pybind11::array_t<int, 16>&, pybind11::array_t<int, 16>&, pybind11::array_t<int, 16>&, float&, pybind11::kwargs const&)::'lambda1'(float) const&, ThreadedRNG64<Xoshiro256StarStar, std::__1::random_device> >(DenseEigenLinearOperator<float>*, float const*, int, void _trace_param_f<true, float, DenseEigenLinearOperator<float> >(DenseEigenLinearOperator<float> const*, pybind11::array_t<float, 17> const&, unsigned long, int, unsigned long, float, unsigned long, unsigned long, float, float, float, float, unsigned long, unsigned long, int, pybind11::array_t<float, 17>&, pybind11::array_t<float, 17>&, pybind11::array_t<float, 17>&, pybind11::array_t<int, 16>&, pybind11::array_t<int, 16>&, pybind11::array_t<int, 16>&, pybind11::array_t<int, 16>&, float&, pybind11::kwargs const&)::'lambda1'(float) const&, int, int, float, ThreadedRNG64<Xoshiro256StarStar, std::__1::random_device>&, int, float*, int*, float*)
00000000000b72c0 T void stochastic_lanczos_quadrature<true, float, DenseEigenLinearOperator<float> const, void _trace_param_f<true, float, DenseEigenLinearOperator<float> >(DenseEigenLinearOperator<float> const*, pybind11::array_t<float, 17> const&, unsigned long, int, unsigned long, float, unsigned long, unsigned long, float, float, float, float, unsigned long, unsigned long, int, pybind11::array_t<float, 17>&, pybind11::array_t<float, 17>&, pybind11::array_t<float, 17>&, pybind11::array_t<int, 16>&, pybind11::array_t<int, 16>&, pybind11::array_t<int, 16>&, pybind11::array_t<int, 16>&, float&, pybind11::kwargs const&)::'lambda1'(float) const&, ThreadedRNG64<pcg_detail::engine<unsigned long long, unsigned __int128, pcg_detail::xsl_rr_mixin<unsigned long long, unsigned __int128>, false, pcg_detail::specific_stream<unsigned __int128>, pcg_detail::default_multiplier<unsigned __int128> >, std::__1::random_device> >(DenseEigenLinearOperator<float>*, float const*, int, void _trace_param_f<true, float, DenseEigenLinearOperator<float> >(DenseEigenLinearOperator<float> const*, pybind11::array_t<float, 17> const&, unsigned long, int, unsigned long, float, unsigned long, unsigned long, float, float, float, float, unsigned long, unsigned long, int, pybind11::array_t<float, 17>&, pybind11::array_t<float, 17>&, pybind11::array_t<float, 17>&, pybind11::array_t<int, 16>&, pybind11::array_t<int, 16>&, pybind11::array_t<int, 16>&, pybind11::array_t<int, 16>&, float&, pybind11::kwargs const&)::'lambda1'(float) const&, int, int, float, ThreadedRNG64<pcg_detail::engine<unsigned long long, unsigned __int128, pcg_detail::xsl_rr_mixin<unsigned long long, unsigned __int128>, false, pcg_detail::specific_stream<unsigned __int128>, pcg_detail::default_multiplier<unsigned __int128> >, std::__1::random_device>&, int, float*, int*, float*)
00000000000b7cf0 T void stochastic_lanczos_quadrature<true, float, DenseEigenLinearOperator<float> const, void _trace_param_f<true, float, DenseEigenLinearOperator<float> >(DenseEigenLinearOperator<float> const*, pybind11::array_t<float, 17> const&, unsigned long, int, unsigned long, float, unsigned long, unsigned long, float, float, float, float, unsigned long, unsigned long, int, pybind11::array_t<float, 17>&, pybind11::array_t<float, 17>&, pybind11::array_t<float, 17>&, pybind11::array_t<int, 16>&, pybind11::array_t<int, 16>&, pybind11::array_t<int, 16>&, pybind11::array_t<int, 16>&, float&, pybind11::kwargs const&)::'lambda1'(float) const&, ThreadedRNG64<std::__1::mersenne_twister_engine<unsigned long long, 64ul, 312ul, 156ul, 31ul, 13043109905998158313ull, 29ul, 6148914691236517205ull, 17ul, 8202884508482404352ull, 37ul, 18444473444759240704ull, 43ul, 6364136223846793005ull>, std::__1::random_device> >(DenseEigenLinearOperator<float>*, float const*, int, void _trace_param_f<true, float, DenseEigenLinearOperator<float> >(DenseEigenLinearOperator<float> const*, pybind11::array_t<float, 17> const&, unsigned long, int, unsigned long, float, unsigned long, unsigned long, float, float, float, float, unsigned long, unsigned long, int, pybind11::array_t<float, 17>&, pybind11::array_t<float, 17>&, pybind11::array_t<float, 17>&, pybind11::array_t<int, 16>&, pybind11::array_t<int, 16>&, pybind11::array_t<int, 16>&, pybind11::array_t<int, 16>&, float&, pybind11::kwargs const&)::'lambda1'(float) const&, int, int, float, ThreadedRNG64<std::__1::mersenne_twister_engine<unsigned long long, 64ul, 312ul, 156ul, 31ul, 13043109905998158313ull, 29ul, 6148914691236517205ull, 17ul, 8202884508482404352ull, 37ul, 18444473444759240704ull, 43ul, 6364136223846793005ull>, std::__1::random_device>&, int, float*, int*, float*)
00000000000b6890 T void stochastic_lanczos_quadrature<true, float, DenseEigenLinearOperator<float> const, void _trace_param_f<true, float, DenseEigenLinearOperator<float> >(DenseEigenLinearOperator<float> const*, pybind11::array_t<float, 17> const&, unsigned long, int, unsigned long, float, unsigned long, unsigned long, float, float, float, float, unsigned long, unsigned long, int, pybind11::array_t<float, 17>&, pybind11::array_t<float, 17>&, pybind11::array_t<float, 17>&, pybind11::array_t<int, 16>&, pybind11::array_t<int, 16>&, pybind11::array_t<int, 16>&, pybind11::array_t<int, 16>&, float&, pybind11::kwargs const&)::'lambda1'(float) const&, ThreadedRNG64<std::__1::linear_congruential_engine<unsigned long long, 6364136223846793005ull, 1442695040888963407ull, 0ull>, std::__1::random_device> >(DenseEigenLinearOperator<float>*, float const*, int, void _trace_param_f<true, float, DenseEigenLinearOperator<float> >(DenseEigenLinearOperator<float> const*, pybind11::array_t<float, 17> const&, unsigned long, int, unsigned long, float, unsigned long, unsigned long, float, float, float, float, unsigned long, unsigned long, int, pybind11::array_t<float, 17>&, pybind11::array_t<float, 17>&, pybind11::array_t<float, 17>&, pybind11::array_t<int, 16>&, pybind11::array_t<int, 16>&, pybind11::array_t<int, 16>&, pybind11::array_t<int, 16>&, float&, pybind11::kwargs const&)::'lambda1'(float) const&, int, int, float, ThreadedRNG64<std::__1::linear_congruential_engine<unsigned long long, 6364136223846793005ull, 1442695040888963407ull, 0ull>, std::__1::random_device>&, int, float*, int*, float*)
00000000000a9ef0 T void stochastic_lanczos_quadrature<true, float, DenseEigenLinearOperator<float> const, void _trace_param_f<true, float, DenseEigenLinearOperator<float> >(DenseEigenLinearOperator<float> const*, pybind11::array_t<float, 17> const&, unsigned long, int, unsigned long, float, unsigned long, unsigned long, float, float, float, float, unsigned long, unsigned long, int, pybind11::array_t<float, 17>&, pybind11::array_t<float, 17>&, pybind11::array_t<float, 17>&, pybind11::array_t<int, 16>&, pybind11::array_t<int, 16>&, pybind11::array_t<int, 16>&, pybind11::array_t<int, 16>&, float&, pybind11::kwargs const&)::'lambda'(float) const&, ThreadedRNG64<SplitMix64, std::__1::random_device> >(DenseEigenLinearOperator<float>*, float const*, int, void _trace_param_f<true, float, DenseEigenLinearOperator<float> >(DenseEigenLinearOperator<float> const*, pybind11::array_t<float, 17> const&, unsigned long, int, unsigned long, float, unsigned long, unsigned long, float, float, float, float, unsigned long, unsigned long, int, pybind11::array_t<float, 17>&, pybind11::array_t<float, 17>&, pybind11::array_t<float, 17>&, pybind11::array_t<int, 16>&, pybind11::array_t<int, 16>&, pybind11::array_t<int, 16>&, pybind11::array_t<int, 16>&, float&, pybind11::kwargs const&)::'lambda'(float) const&, int, int, float, ThreadedRNG64<SplitMix64, std::__1::random_device>&, int, float*, int*, float*)
00000000000aa8a0 T void stochastic_lanczos_quadrature<true, float, DenseEigenLinearOperator<float> const, void _trace_param_f<true, float, DenseEigenLinearOperator<float> >(DenseEigenLinearOperator<float> const*, pybind11::array_t<float, 17> const&, unsigned long, int, unsigned long, float, unsigned long, unsigned long, float, float, float, float, unsigned long, unsigned long, int, pybind11::array_t<float, 17>&, pybind11::array_t<float, 17>&, pybind11::array_t<float, 17>&, pybind11::array_t<int, 16>&, pybind11::array_t<int, 16>&, pybind11::array_t<int, 16>&, pybind11::array_t<int, 16>&, float&, pybind11::kwargs const&)::'lambda'(float) const&, ThreadedRNG64<Xoshiro256StarStar, std::__1::random_device> >(DenseEigenLinearOperator<float>*, float const*, int, void _trace_param_f<true, float, DenseEigenLinearOperator<float> >(DenseEigenLinearOperator<float> const*, pybind11::array_t<float, 17> const&, unsigned long, int, unsigned long, float, unsigned long, unsigned long, float, float, float, float, unsigned long, unsigned long, int, pybind11::array_t<float, 17>&, pybind11::array_t<float, 17>&, pybind11::array_t<float, 17>&, pybind11::array_t<int, 16>&, pybind11::array_t<int, 16>&, pybind11::array_t<int, 16>&, pybind11::array_t<int, 16>&, float&, pybind11::kwargs const&)::'lambda'(float) const&, int, int, float, ThreadedRNG64<Xoshiro256StarStar, std::__1::random_device>&, int, float*, int*, float*)
00000000000abc00 T void stochastic_lanczos_quadrature<true, float, DenseEigenLinearOperator<float> const, void _trace_param_f<true, float, DenseEigenLinearOperator<float> >(DenseEigenLinearOperator<float> const*, pybind11::array_t<float, 17> const&, unsigned long, int, unsigned long, float, unsigned long, unsigned long, float, float, float, float, unsigned long, unsigned long, int, pybind11::array_t<float, 17>&, pybind11::array_t<float, 17>&, pybind11::array_t<float, 17>&, pybind11::array_t<int, 16>&, pybind11::array_t<int, 16>&, pybind11::array_t<int, 16>&, pybind11::array_t<int, 16>&, float&, pybind11::kwargs const&)::'lambda'(float) const&, ThreadedRNG64<pcg_detail::engine<unsigned long long, unsigned __int128, pcg_detail::xsl_rr_mixin<unsigned long long, unsigned __int128>, false, pcg_detail::specific_stream<unsigned __int128>, pcg_detail::default_multiplier<unsigned __int128> >, std::__1::random_device> >(DenseEigenLinearOperator<float>*, float const*, int, void _trace_param_f<true, float, DenseEigenLinearOperator<float> >(DenseEigenLinearOperator<float> const*, pybind11::array_t<float, 17> const&, unsigned long, int, unsigned long, float, unsigned long, unsigned long, float, float, float, float, unsigned long, unsigned long, int, pybind11::array_t<float, 17>&, pybind11::array_t<float, 17>&, pybind11::array_t<float, 17>&, pybind11::array_t<int, 16>&, pybind11::array_t<int, 16>&, pybind11::array_t<int, 16>&, pybind11::array_t<int, 16>&, float&, pybind11::kwargs const&)::'lambda'(float) const&, int, int, float, ThreadedRNG64<pcg_detail::engine<unsigned long long, unsigned __int128, pcg_detail::xsl_rr_mixin<unsigned long long, unsigned __int128>, false, pcg_detail::specific_stream<unsigned __int128>, pcg_detail::default_multiplier<unsigned __int128> >, std::__1::random_device>&, int, float*, int*, float*)
00000000000ac5b0 T void stochastic_lanczos_quadrature<true, float, DenseEigenLinearOperator<float> const, void _trace_param_f<true, float, DenseEigenLinearOperator<float> >(DenseEigenLinearOperator<float> const*, pybind11::array_t<float, 17> const&, unsigned long, int, unsigned long, float, unsigned long, unsigned long, float, float, float, float, unsigned long, unsigned long, int, pybind11::array_t<float, 17>&, pybind11::array_t<float, 17>&, pybind11::array_t<float, 17>&, pybind11::array_t<int, 16>&, pybind11::array_t<int, 16>&, pybind11::array_t<int, 16>&, pybind11::array_t<int, 16>&, float&, pybind11::kwargs const&)::'lambda'(float) const&, ThreadedRNG64<std::__1::mersenne_twister_engine<unsigned long long, 64ul, 312ul, 156ul, 31ul, 13043109905998158313ull, 29ul, 6148914691236517205ull, 17ul, 8202884508482404352ull, 37ul, 18444473444759240704ull, 43ul, 6364136223846793005ull>, std::__1::random_device> >(DenseEigenLinearOperator<float>*, float const*, int, void _trace_param_f<true, float, DenseEigenLinearOperator<float> >(DenseEigenLinearOperator<float> const*, pybind11::array_t<float, 17> const&, unsigned long, int, unsigned long, float, unsigned long, unsigned long, float, float, float, float, unsigned long, unsigned long, int, pybind11::array_t<float, 17>&, pybind11::array_t<float, 17>&, pybind11::array_t<float, 17>&, pybind11::array_t<int, 16>&, pybind11::array_t<int, 16>&, pybind11::array_t<int, 16>&, pybind11::array_t<int, 16>&, float&, pybind11::kwargs const&)::'lambda'(float) const&, int, int, float, ThreadedRNG64<std::__1::mersenne_twister_engine<unsigned long long, 64ul, 312ul, 156ul, 31ul, 13043109905998158313ull, 29ul, 6148914691236517205ull, 17ul, 8202884508482404352ull, 37ul, 18444473444759240704ull, 43ul, 6364136223846793005ull>, std::__1::random_device>&, int, float*, int*, float*)
00000000000ab250 T void stochastic_lanczos_quadrature<true, float, DenseEigenLinearOperator<float> const, void _trace_param_f<true, float, DenseEigenLinearOperator<float> >(DenseEigenLinearOperator<float> const*, pybind11::array_t<float, 17> const&, unsigned long, int, unsigned long, float, unsigned long, unsigned long, float, float, float, float, unsigned long, unsigned long, int, pybind11::array_t<float, 17>&, pybind11::array_t<float, 17>&, pybind11::array_t<float, 17>&, pybind11::array_t<int, 16>&, pybind11::array_t<int, 16>&, pybind11::array_t<int, 16>&, pybind11::array_t<int, 16>&, float&, pybind11::kwargs const&)::'lambda'(float) const&, ThreadedRNG64<std::__1::linear_congruential_engine<unsigned long long, 6364136223846793005ull, 1442695040888963407ull, 0ull>, std::__1::random_device> >(DenseEigenLinearOperator<float>*, float const*, int, void _trace_param_f<true, float, DenseEigenLinearOperator<float> >(DenseEigenLinearOperator<float> const*, pybind11::array_t<float, 17> const&, unsigned long, int, unsigned long, float, unsigned long, unsigned long, float, float, float, float, unsigned long, unsigned long, int, pybind11::array_t<float, 17>&, pybind11::array_t<float, 17>&, pybind11::array_t<float, 17>&, pybind11::array_t<int, 16>&, pybind11::array_t<int, 16>&, pybind11::array_t<int, 16>&, pybind11::array_t<int, 16>&, float&, pybind11::kwargs const&)::'lambda'(float) const&, int, int, float, ThreadedRNG64<std::__1::linear_congruential_engine<unsigned long long, 6364136223846793005ull, 1442695040888963407ull, 0ull>, std::__1::random_device>&, int, float*, int*, float*)
00000000000701b0 T void stochastic_lanczos_quadrature<true, float, SparseEigenLinearOperator<float> const, std::__1::identity const&, ThreadedRNG64<SplitMix64, std::__1::random_device> >(SparseEigenLinearOperator<float> const*, float const*, int, std::__1::identity const&, int, int, float, ThreadedRNG64<SplitMix64, std::__1::random_device>&, int, float*, int*, float*)
0000000000071580 T void stochastic_lanczos_quadrature<true, float, SparseEigenLinearOperator<float> const, std::__1::identity const&, ThreadedRNG64<Xoshiro256StarStar, std::__1::random_device> >(SparseEigenLinearOperator<float> const*, float const*, int, std::__1::identity const&, int, int, float, ThreadedRNG64<Xoshiro256StarStar, std::__1::random_device>&, int, float*, int*, float*)
0000000000072a40 T void stochastic_lanczos_quadrature<true, float, SparseEigenLinearOperator<float> const, std::__1::identity const&, ThreadedRNG64<pcg_detail::engine<unsigned long long, unsigned __int128, pcg_detail::xsl_rr_mixin<unsigned long long, unsigned __int128>, false, pcg_detail::specific_stream<unsigned __int128>, pcg_detail::default_multiplier<unsigned __int128> >, std::__1::random_device> >(SparseEigenLinearOperator<float> const*, float const*, int, std::__1::identity const&, int, int, float, ThreadedRNG64<pcg_detail::engine<unsigned long long, unsigned __int128, pcg_detail::xsl_rr_mixin<unsigned long long, unsigned __int128>, false, pcg_detail::specific_stream<unsigned __int128>, pcg_detail::default_multiplier<unsigned __int128> >, std::__1::random_device>&, int, float*, int*, float*)
00000000000734a0 T void stochastic_lanczos_quadrature<true, float, SparseEigenLinearOperator<float> const, std::__1::identity const&, ThreadedRNG64<std::__1::mersenne_twister_engine<unsigned long long, 64ul, 312ul, 156ul, 31ul, 13043109905998158313ull, 29ul, 6148914691236517205ull, 17ul, 8202884508482404352ull, 37ul, 18444473444759240704ull, 43ul, 6364136223846793005ull>, std::__1::random_device> >(SparseEigenLinearOperator<float> const*, float const*, int, std::__1::identity const&, int, int, float, ThreadedRNG64<std::__1::mersenne_twister_engine<unsigned long long, 64ul, 312ul, 156ul, 31ul, 13043109905998158313ull, 29ul, 6148914691236517205ull, 17ul, 8202884508482404352ull, 37ul, 18444473444759240704ull, 43ul, 6364136223846793005ull>, std::__1::random_device>&, int, float*, int*, float*)
0000000000071fe0 T void stochastic_lanczos_quadrature<true, float, SparseEigenLinearOperator<float> const, std::__1::identity const&, ThreadedRNG64<std::__1::linear_congruential_engine<unsigned long long, 6364136223846793005ull, 1442695040888963407ull, 0ull>, std::__1::random_device> >(SparseEigenLinearOperator<float> const*, float const*, int, std::__1::identity const&, int, int, float, ThreadedRNG64<std::__1::linear_congruential_engine<unsigned long long, 6364136223846793005ull, 1442695040888963407ull, 0ull>, std::__1::random_device>&, int, float*, int*, float*)
000000000007c010 T void stochastic_lanczos_quadrature<true, float, SparseEigenLinearOperator<float> const, void _trace_param_f<true, float, SparseEigenLinearOperator<float> >(SparseEigenLinearOperator<float> const*, pybind11::array_t<float, 17> const&, unsigned long, int, unsigned long, float, unsigned long, unsigned long, float, float, float, float, unsigned long, unsigned long, int, pybind11::array_t<float, 17>&, pybind11::array_t<float, 17>&, pybind11::array_t<float, 17>&, pybind11::array_t<int, 16>&, pybind11::array_t<int, 16>&, pybind11::array_t<int, 16>&, pybind11::array_t<int, 16>&, float&, pybind11::kwargs const&)::'lambda0'(float) const&, ThreadedRNG64<SplitMix64, std::__1::random_device> >(SparseEigenLinearOperator<float>*, float const*, int, void _trace_param_f<true, float, SparseEigenLinearOperator<float> >(SparseEigenLinearOperator<float> const*, pybind11::array_t<float, 17> const&, unsigned long, int, unsigned long, float, unsigned long, unsigned long, float, float, float, float, unsigned long, unsigned long, int, pybind11::array_t<float, 17>&, pybind11::array_t<float, 17>&, pybind11::array_t<float, 17>&, pybind11::array_t<int, 16>&, pybind11::array_t<int, 16>&, pybind11::array_t<int, 16>&, pybind11::array_t<int, 16>&, float&, pybind11::kwargs const&)::'lambda0'(float) const&, int, int, float, ThreadedRNG64<SplitMix64, std::__1::random_device>&, int, float*, int*, float*)
000000000007ca80 T void stochastic_lanczos_quadrature<true, float, SparseEigenLinearOperator<float> const, void _trace_param_f<true, float, SparseEigenLinearOperator<float> >(SparseEigenLinearOperator<float> const*, pybind11::array_t<float, 17> const&, unsigned long, int, unsigned long, float, unsigned long, unsigned long, float, float, float, float, unsigned long, unsigned long, int, pybind11::array_t<float, 17>&, pybind11::array_t<float, 17>&, pybind11::array_t<float, 17>&, pybind11::array_t<int, 16>&, pybind11::array_t<int, 16>&, pybind11::array_t<int, 16>&, pybind11::array_t<int, 16>&, float&, pybind11::kwargs const&)::'lambda0'(float) const&, ThreadedRNG64<Xoshiro256StarStar, std::__1::random_device> >(SparseEigenLinearOperator<float>*, float const*, int, void _trace_param_f<true, float, SparseEigenLinearOperator<float> >(SparseEigenLinearOperator<float> const*, pybind11::array_t<float, 17> const&, unsigned long, int, unsigned long, float, unsigned long, unsigned long, float, float, float, float, unsigned long, unsigned long, int, pybind11::array_t<float, 17>&, pybind11::array_t<float, 17>&, pybind11::array_t<float, 17>&, pybind11::array_t<int, 16>&, pybind11::array_t<int, 16>&, pybind11::array_t<int, 16>&, pybind11::array_t<int, 16>&, float&, pybind11::kwargs const&)::'lambda0'(float) const&, int, int, float, ThreadedRNG64<Xoshiro256StarStar, std::__1::random_device>&, int, float*, int*, float*)
000000000007df60 T void stochastic_lanczos_quadrature<true, float, SparseEigenLinearOperator<float> const, void _trace_param_f<true, float, SparseEigenLinearOperator<float> >(SparseEigenLinearOperator<float> const*, pybind11::array_t<float, 17> const&, unsigned long, int, unsigned long, float, unsigned long, unsigned long, float, float, float, float, unsigned long, unsigned long, int, pybind11::array_t<float, 17>&, pybind11::array_t<float, 17>&, pybind11::array_t<float, 17>&, pybind11::array_t<int, 16>&, pybind11::array_t<int, 16>&, pybind11::array_t<int, 16>&, pybind11::array_t<int, 16>&, float&, pybind11::kwargs const&)::'lambda0'(float) const&, ThreadedRNG64<pcg_detail::engine<unsigned long long, unsigned __int128, pcg_detail::xsl_rr_mixin<unsigned long long, unsigned __int128>, false, pcg_detail::specific_stream<unsigned __int128>, pcg_detail::default_multiplier<unsigned __int128> >, std::__1::random_device> >(SparseEigenLinearOperator<float>*, float const*, int, void _trace_param_f<true, float, SparseEigenLinearOperator<float> >(SparseEigenLinearOperator<float> const*, pybind11::array_t<float, 17> const&, unsigned long, int, unsigned long, float, unsigned long, unsigned long, float, float, float, float, unsigned long, unsigned long, int, pybind11::array_t<float, 17>&, pybind11::array_t<float, 17>&, pybind11::array_t<float, 17>&, pybind11::array_t<int, 16>&, pybind11::array_t<int, 16>&, pybind11::array_t<int, 16>&, pybind11::array_t<int, 16>&, float&, pybind11::kwargs const&)::'lambda0'(float) const&, int, int, float, ThreadedRNG64<pcg_detail::engine<unsigned long long, unsigned __int128, pcg_detail::xsl_rr_mixin<unsigned long long, unsigned __int128>, false, pcg_detail::specific_stream<unsigned __int128>, pcg_detail::default_multiplier<unsigned __int128> >, std::__1::random_device>&, int, float*, int*, float*)
000000000007e9d0 T void stochastic_lanczos_quadrature<true, float, SparseEigenLinearOperator<float> const, void _trace_param_f<true, float, SparseEigenLinearOperator<float> >(SparseEigenLinearOperator<float> const*, pybind11::array_t<float, 17> const&, unsigned long, int, unsigned long, float, unsigned long, unsigned long, float, float, float, float, unsigned long, unsigned long, int, pybind11::array_t<float, 17>&, pybind11::array_t<float, 17>&, pybind11::array_t<float, 17>&, pybind11::array_t<int, 16>&, pybind11::array_t<int, 16>&, pybind11::array_t<int, 16>&, pybind11::array_t<int, 16>&, float&, pybind11::kwargs const&)::'lambda0'(float) const&, ThreadedRNG64<std::__1::mersenne_twister_engine<unsigned long long, 64ul, 312ul, 156ul, 31ul, 13043109905998158313ull, 29ul, 6148914691236517205ull, 17ul, 8202884508482404352ull, 37ul, 18444473444759240704ull, 43ul, 6364136223846793005ull>, std::__1::random_device> >(SparseEigenLinearOperator<float>*, float const*, int, void _trace_param_f<true, float, SparseEigenLinearOperator<float> >(SparseEigenLinearOperator<float> const*, pybind11::array_t<float, 17> const&, unsigned long, int, unsigned long, float, unsigned long, unsigned long, float, float, float, float, unsigned long, unsigned long, int, pybind11::array_t<float, 17>&, pybind11::array_t<float, 17>&, pybind11::array_t<float, 17>&, pybind11::array_t<int, 16>&, pybind11::array_t<int, 16>&, pybind11::array_t<int, 16>&, pybind11::array_t<int, 16>&, float&, pybind11::kwargs const&)::'lambda0'(float) const&, int, int, float, ThreadedRNG64<std::__1::mersenne_twister_engine<unsigned long long, 64ul, 312ul, 156ul, 31ul, 13043109905998158313ull, 29ul, 6148914691236517205ull, 17ul, 8202884508482404352ull, 37ul, 18444473444759240704ull, 43ul, 6364136223846793005ull>, std::__1::random_device>&, int, float*, int*, float*)
000000000007d4f0 T void stochastic_lanczos_quadrature<true, float, SparseEigenLinearOperator<float> const, void _trace_param_f<true, float, SparseEigenLinearOperator<float> >(SparseEigenLinearOperator<float> const*, pybind11::array_t<float, 17> const&, unsigned long, int, unsigned long, float, unsigned long, unsigned long, float, float, float, float, unsigned long, unsigned long, int, pybind11::array_t<float, 17>&, pybind11::array_t<float, 17>&, pybind11::array_t<float, 17>&, pybind11::array_t<int, 16>&, pybind11::array_t<int, 16>&, pybind11::array_t<int, 16>&, pybind11::array_t<int, 16>&, float&, pybind11::kwargs const&)::'lambda0'(float) const&, ThreadedRNG64<std::__1::linear_congruential_engine<unsigned long long, 6364136223846793005ull, 1442695040888963407ull, 0ull>, std::__1::random_device> >(SparseEigenLinearOperator<float>*, float const*, int, void _trace_param_f<true, float, SparseEigenLinearOperator<float> >(SparseEigenLinearOperator<float> const*, pybind11::array_t<float, 17> const&, unsigned long, int, unsigned long, float, unsigned long, unsigned long, float, float, float, float, unsigned long, unsigned long, int, pybind11::array_t<float, 17>&, pybind11::array_t<float, 17>&, pybind11::array_t<float, 17>&, pybind11::array_t<int, 16>&, pybind11::array_t<int, 16>&, pybind11::array_t<int, 16>&, pybind11::array_t<int, 16>&, float&, pybind11::kwargs const&)::'lambda0'(float) const&, int, int, float, ThreadedRNG64<std::__1::linear_congruential_engine<unsigned long long, 6364136223846793005ull, 1442695040888963407ull, 0ull>, std::__1::random_device>&, int, float*, int*, float*)
0000000000081c90 T void stochastic_lanczos_quadrature<true, float, SparseEigenLinearOperator<float> const, void _trace_param_f<true, float, SparseEigenLinearOperator<float> >(SparseEigenLinearOperator<float> const*, pybind11::array_t<float, 17> const&, unsigned long, int, unsigned long, float, unsigned long, unsigned long, float, float, float, float, unsigned long, unsigned long, int, pybind11::array_t<float, 17>&, pybind11::array_t<float, 17>&, pybind11::array_t<float, 17>&, pybind11::array_t<int, 16>&, pybind11::array_t<int, 16>&, pybind11::array_t<int, 16>&, pybind11::array_t<int, 16>&, float&, pybind11::kwargs const&)::'lambda1'(float) const&, ThreadedRNG64<SplitMix64, std::__1::random_device> >(SparseEigenLinearOperator<float>*, float const*, int, void _trace_param_f<true, float, SparseEigenLinearOperator<float> >(SparseEigenLinearOperator<float> const*, pybind11::array_t<float, 17> const&, unsigned long, int, unsigned long, float, unsigned long, unsigned long, float, float, float, float, unsigned long, unsigned long, int, pybind11::array_t<float, 17>&, pybind11::array_t<float, 17>&, pybind11::array_t<float, 17>&, pybind11::array_t<int, 16>&, pybind11::array_t<int, 16>&, pybind11::array_t<int, 16>&, pybind11::array_t<int, 16>&, float&, pybind11::kwargs const&)::'lambda1'(float) const&, int, int, float, ThreadedRNG64<SplitMix64, std::__1::random_device>&, int, float*, int*, float*)
00000000000826c0 T void stochastic_lanczos_quadrature<true, float, SparseEigenLinearOperator<float> const, void _trace_param_f<true, float, SparseEigenLinearOperator<float> >(SparseEigenLinearOperator<float> const*, pybind11::array_t<float, 17> const&, unsigned long, int, unsigned long, float, unsigned long, unsigned long, float, float, float, float, unsigned long, unsigned long, int, pybind11::array_t<float, 17>&, pybind11::array_t<float, 17>&, pybind11::array_t<float, 17>&, pybind11::array_t<int, 16>&, pybind11::array_t<int, 16>&, pybind11::array_t<int, 16>&, pybind11::array_t<int, 16>&, float&, pybind11::kwargs const&)::'lambda1'(float) const&, ThreadedRNG64<Xoshiro256StarStar, std::__1::random_device> >(SparseEigenLinearOperator<float>*, float const*, int, void _trace_param_f<true, float, SparseEigenLinearOperator<float> >(SparseEigenLinearOperator<float> const*, pybind11::array_t<float, 17> const&, unsigned long, int, unsigned long, float, unsigned long, unsigned long, float, float, float, float, unsigned long, unsigned long, int, pybind11::array_t<float, 17>&, pybind11::array_t<float, 17>&, pybind11::array_t<float, 17>&, pybind11::array_t<int, 16>&, pybind11::array_t<int, 16>&, pybind11::array_t<int, 16>&, pybind11::array_t<int, 16>&, float&, pybind11::kwargs const&)::'lambda1'(float) const&, int, int, float, ThreadedRNG64<Xoshiro256StarStar, std::__1::random_device>&, int, float*, int*, float*)
0000000000083b20 T void stochastic_lanczos_quadrature<true, float, SparseEigenLinearOperator<float> const, void _trace_param_f<true, float, SparseEigenLinearOperator<float> >(SparseEigenLinearOperator<float> const*, pybind11::array_t<float, 17> const&, unsigned long, int, unsigned long, float, unsigned long, unsigned long, float, float, float, float, unsigned long, unsigned long, int, pybind11::array_t<float, 17>&, pybind11::array_t<float, 17>&, pybind11::array_t<float, 17>&, pybind11::array_t<int, 16>&, pybind11::array_t<int, 16>&, pybind11::array_t<int, 16>&, pybind11::array_t<int, 16>&, float&, pybind11::kwargs const&)::'lambda1'(float) const&, ThreadedRNG64<pcg_detail::engine<unsigned long long, unsigned __int128, pcg_detail::xsl_rr_mixin<unsigned long long, unsigned __int128>, false, pcg_detail::specific_stream<unsigned __int128>, pcg_detail::default_multiplier<unsigned __int128> >, std::__1::random_device> >(SparseEigenLinearOperator<float>*, float const*, int, void _trace_param_f<true, float, SparseEigenLinearOperator<float> >(SparseEigenLinearOperator<float> const*, pybind11::array_t<float, 17> const&, unsigned long, int, unsigned long, float, unsigned long, unsigned long, float, float, float, float, unsigned long, unsigned long, int, pybind11::array_t<float, 17>&, pybind11::array_t<float, 17>&, pybind11::array_t<float, 17>&, pybind11::array_t<int, 16>&, pybind11::array_t<int, 16>&, pybind11::array_t<int, 16>&, pybind11::array_t<int, 16>&, float&, pybind11::kwargs const&)::'lambda1'(float) const&, int, int, float, ThreadedRNG64<pcg_detail::engine<unsigned long long, unsigned __int128, pcg_detail::xsl_rr_mixin<unsigned long long, unsigned __int128>, false, pcg_detail::specific_stream<unsigned __int128>, pcg_detail::default_multiplier<unsigned __int128> >, std::__1::random_device>&, int, float*, int*, float*)
0000000000084550 T void stochastic_lanczos_quadrature<true, float, SparseEigenLinearOperator<float> const, void _trace_param_f<true, float, SparseEigenLinearOperator<float> >(SparseEigenLinearOperator<float> const*, pybind11::array_t<float, 17> const&, unsigned long, int, unsigned long, float, unsigned long, unsigned long, float, float, float, float, unsigned long, unsigned long, int, pybind11::array_t<float, 17>&, pybind11::array_t<float, 17>&, pybind11::array_t<float, 17>&, pybind11::array_t<int, 16>&, pybind11::array_t<int, 16>&, pybind11::array_t<int, 16>&, pybind11::array_t<int, 16>&, float&, pybind11::kwargs const&)::'lambda1'(float) const&, ThreadedRNG64<std::__1::mersenne_twister_engine<unsigned long long, 64ul, 312ul, 156ul, 31ul, 13043109905998158313ull, 29ul, 6148914691236517205ull, 17ul, 8202884508482404352ull, 37ul, 18444473444759240704ull, 43ul, 6364136223846793005ull>, std::__1::random_device> >(SparseEigenLinearOperator<float>*, float const*, int, void _trace_param_f<true, float, SparseEigenLinearOperator<float> >(SparseEigenLinearOperator<float> const*, pybind11::array_t<float, 17> const&, unsigned long, int, unsigned long, float, unsigned long, unsigned long, float, float, float, float, unsigned long, unsigned long, int, pybind11::array_t<float, 17>&, pybind11::array_t<float, 17>&, pybind11::array_t<float, 17>&, pybind11::array_t<int, 16>&, pybind11::array_t<int, 16>&, pybind11::array_t<int, 16>&, pybind11::array_t<int, 16>&, float&, pybind11::kwargs const&)::'lambda1'(float) const&, int, int, float, ThreadedRNG64<std::__1::mersenne_twister_engine<unsigned long long, 64ul, 312ul, 156ul, 31ul, 13043109905998158313ull, 29ul, 6148914691236517205ull, 17ul, 8202884508482404352ull, 37ul, 18444473444759240704ull, 43ul, 6364136223846793005ull>, std::__1::random_device>&, int, float*, int*, float*)
00000000000830f0 T void stochastic_lanczos_quadrature<true, float, SparseEigenLinearOperator<float> const, void _trace_param_f<true, float, SparseEigenLinearOperator<float> >(SparseEigenLinearOperator<float> const*, pybind11::array_t<float, 17> const&, unsigned long, int, unsigned long, float, unsigned long, unsigned long, float, float, float, float, unsigned long, unsigned long, int, pybind11::array_t<float, 17>&, pybind11::array_t<float, 17>&, pybind11::array_t<float, 17>&, pybind11::array_t<int, 16>&, pybind11::array_t<int, 16>&, pybind11::array_t<int, 16>&, pybind11::array_t<int, 16>&, float&, pybind11::kwargs const&)::'lambda1'(float) const&, ThreadedRNG64<std::__1::linear_congruential_engine<unsigned long long, 6364136223846793005ull, 1442695040888963407ull, 0ull>, std::__1::random_device> >(SparseEigenLinearOperator<float>*, float const*, int, void _trace_param_f<true, float, SparseEigenLinearOperator<float> >(SparseEigenLinearOperator<float> const*, pybind11::array_t<float, 17> const&, unsigned long, int, unsigned long, float, unsigned long, unsigned long, float, float, float, float, unsigned long, unsigned long, int, pybind11::array_t<float, 17>&, pybind11::array_t<float, 17>&, pybind11::array_t<float, 17>&, pybind11::array_t<int, 16>&, pybind11::array_t<int, 16>&, pybind11::array_t<int, 16>&, pybind11::array_t<int, 16>&, float&, pybind11::kwargs const&)::'lambda1'(float) const&, int, int, float, ThreadedRNG64<std::__1::linear_congruential_engine<unsigned long long, 6364136223846793005ull, 1442695040888963407ull, 0ull>, std::__1::random_device>&, int, float*, int*, float*)
0000000000076750 T void stochastic_lanczos_quadrature<true, float, SparseEigenLinearOperator<float> const, void _trace_param_f<true, float, SparseEigenLinearOperator<float> >(SparseEigenLinearOperator<float> const*, pybind11::array_t<float, 17> const&, unsigned long, int, unsigned long, float, unsigned long, unsigned long, float, float, float, float, unsigned long, unsigned long, int, pybind11::array_t<float, 17>&, pybind11::array_t<float, 17>&, pybind11::array_t<float, 17>&, pybind11::array_t<int, 16>&, pybind11::array_t<int, 16>&, pybind11::array_t<int, 16>&, pybind11::array_t<int, 16>&, float&, pybind11::kwargs const&)::'lambda'(float) const&, ThreadedRNG64<SplitMix64, std::__1::random_device> >(SparseEigenLinearOperator<float>*, float const*, int, void _trace_param_f<true, float, SparseEigenLinearOperator<float> >(SparseEigenLinearOperator<float> const*, pybind11::array_t<float, 17> const&, unsigned long, int, unsigned long, float, unsigned long, unsigned long, float, float, float, float, unsigned long, unsigned long, int, pybind11::array_t<float, 17>&, pybind11::array_t<float, 17>&, pybind11::array_t<float, 17>&, pybind11::array_t<int, 16>&, pybind11::array_t<int, 16>&, pybind11::array_t<int, 16>&, pybind11::array_t<int, 16>&, float&, pybind11::kwargs const&)::'lambda'(float) const&, int, int, float, ThreadedRNG64<SplitMix64, std::__1::random_device>&, int, float*, int*, float*)
0000000000077100 T void stochastic_lanczos_quadrature<true, float, SparseEigenLinearOperator<float> const, void _trace_param_f<true, float, SparseEigenLinearOperator<float> >(SparseEigenLinearOperator<float> const*, pybind11::array_t<float, 17> const&, unsigned long, int, unsigned long, float, unsigned long, unsigned long, float, float, float, float, unsigned long, unsigned long, int, pybind11::array_t<float, 17>&, pybind11::array_t<float, 17>&, pybind11::array_t<float, 17>&, pybind11::array_t<int, 16>&, pybind11::array_t<int, 16>&, pybind11::array_t<int, 16>&, pybind11::array_t<int, 16>&, float&, pybind11::kwargs const&)::'lambda'(float) const&, ThreadedRNG64<Xoshiro256StarStar, std::__1::random_device> >(SparseEigenLinearOperator<float>*, float const*, int, void _trace_param_f<true, float, SparseEigenLinearOperator<float> >(SparseEigenLinearOperator<float> const*, pybind11::array_t<float, 17> const&, unsigned long, int, unsigned long, float, unsigned long, unsigned long, float, float, float, float, unsigned long, unsigned long, int, pybind11::array_t<float, 17>&, pybind11::array_t<float, 17>&, pybind11::array_t<float, 17>&, pybind11::array_t<int, 16>&, pybind11::array_t<int, 16>&, pybind11::array_t<int, 16>&, pybind11::array_t<int, 16>&, float&, pybind11::kwargs const&)::'lambda'(float) const&, int, int, float, ThreadedRNG64<Xoshiro256StarStar, std::__1::random_device>&, int, float*, int*, float*)
0000000000078460 T void stochastic_lanczos_quadrature<true, float, SparseEigenLinearOperator<float> const, void _trace_param_f<true, float, SparseEigenLinearOperator<float> >(SparseEigenLinearOperator<float> const*, pybind11::array_t<float, 17> const&, unsigned long, int, unsigned long, float, unsigned long, unsigned long, float, float, float, float, unsigned long, unsigned long, int, pybind11::array_t<float, 17>&, pybind11::array_t<float, 17>&, pybind11::array_t<float, 17>&, pybind11::array_t<int, 16>&, pybind11::array_t<int, 16>&, pybind11::array_t<int, 16>&, pybind11::array_t<int, 16>&, float&, pybind11::kwargs const&)::'lambda'(float) const&, ThreadedRNG64<pcg_detail::engine<unsigned long long, unsigned __int128, pcg_detail::xsl_rr_mixin<unsigned long long, unsigned __int128>, false, pcg_detail::specific_stream<unsigned __int128>, pcg_detail::default_multiplier<unsigned __int128> >, std::__1::random_device> >(SparseEigenLinearOperator<float>*, float const*, int, void _trace_param_f<true, float, SparseEigenLinearOperator<float> >(SparseEigenLinearOperator<float> const*, pybind11::array_t<float, 17> const&, unsigned long, int, unsigned long, float, unsigned long, unsigned long, float, float, float, float, unsigned long, unsigned long, int, pybind11::array_t<float, 17>&, pybind11::array_t<float, 17>&, pybind11::array_t<float, 17>&, pybind11::array_t<int, 16>&, pybind11::array_t<int, 16>&, pybind11::array_t<int, 16>&, pybind11::array_t<int, 16>&, float&, pybind11::kwargs const&)::'lambda'(float) const&, int, int, float, ThreadedRNG64<pcg_detail::engine<unsigned long long, unsigned __int128, pcg_detail::xsl_rr_mixin<unsigned long long, unsigned __int128>, false, pcg_detail::specific_stream<unsigned __int128>, pcg_detail::default_multiplier<unsigned __int128> >, std::__1::random_device>&, int, float*, int*, float*)
0000000000078e10 T void stochastic_lanczos_quadrature<true, float, SparseEigenLinearOperator<float> const, void _trace_param_f<true, float, SparseEigenLinearOperator<float> >(SparseEigenLinearOperator<float> const*, pybind11::array_t<float, 17> const&, unsigned long, int, unsigned long, float, unsigned long, unsigned long, float, float, float, float, unsigned long, unsigned long, int, pybind11::array_t<float, 17>&, pybind11::array_t<float, 17>&, pybind11::array_t<float, 17>&, pybind11::array_t<int, 16>&, pybind11::array_t<int, 16>&, pybind11::array_t<int, 16>&, pybind11::array_t<int, 16>&, float&, pybind11::kwargs const&)::'lambda'(float) const&, ThreadedRNG64<std::__1::mersenne_twister_engine<unsigned long long, 64ul, 312ul, 156ul, 31ul, 13043109905998158313ull, 29ul, 6148914691236517205ull, 17ul, 8202884508482404352ull, 37ul, 18444473444759240704ull, 43ul, 6364136223846793005ull>, std::__1::random_device> >(SparseEigenLinearOperator<float>*, float const*, int, void _trace_param_f<true, float, SparseEigenLinearOperator<float> >(SparseEigenLinearOperator<float> const*, pybind11::array_t<float, 17> const&, unsigned long, int, unsigned long, float, unsigned long, unsigned long, float, float, float, float, unsigned long, unsigned long, int, pybind11::array_t<float, 17>&, pybind11::array_t<float, 17>&, pybind11::array_t<float, 17>&, pybind11::array_t<int, 16>&, pybind11::array_t<int, 16>&, pybind11::array_t<int, 16>&, pybind11::array_t<int, 16>&, float&, pybind11::kwargs const&)::'lambda'(float) const&, int, int, float, ThreadedRNG64<std::__1::mersenne_twister_engine<unsigned long long, 64ul, 312ul, 156ul, 31ul, 13043109905998158313ull, 29ul, 6148914691236517205ull, 17ul, 8202884508482404352ull, 37ul, 18444473444759240704ull, 43ul, 6364136223846793005ull>, std::__1::random_device>&, int, float*, int*, float*)
0000000000077ab0 T void stochastic_lanczos_quadrature<true, float, SparseEigenLinearOperator<float> const, void _trace_param_f<true, float, SparseEigenLinearOperator<float> >(SparseEigenLinearOperator<float> const*, pybind11::array_t<float, 17> const&, unsigned long, int, unsigned long, float, unsigned long, unsigned long, float, float, float, float, unsigned long, unsigned long, int, pybind11::array_t<float, 17>&, pybind11::array_t<float, 17>&, pybind11::array_t<float, 17>&, pybind11::array_t<int, 16>&, pybind11::array_t<int, 16>&, pybind11::array_t<int, 16>&, pybind11::array_t<int, 16>&, float&, pybind11::kwargs const&)::'lambda'(float) const&, ThreadedRNG64<std::__1::linear_congruential_engine<unsigned long long, 6364136223846793005ull, 1442695040888963407ull, 0ull>, std::__1::random_device> >(SparseEigenLinearOperator<float>*, float const*, int, void _trace_param_f<true, float, SparseEigenLinearOperator<float> >(SparseEigenLinearOperator<float> const*, pybind11::array_t<float, 17> const&, unsigned long, int, unsigned long, float, unsigned long, unsigned long, float, float, float, float, unsigned long, unsigned long, int, pybind11::array_t<float, 17>&, pybind11::array_t<float, 17>&, pybind11::array_t<float, 17>&, pybind11::array_t<int, 16>&, pybind11::array_t<int, 16>&, pybind11::array_t<int, 16>&, pybind11::array_t<int, 16>&, float&, pybind11::kwargs const&)::'lambda'(float) const&, int, int, float, ThreadedRNG64<std::__1::linear_congruential_engine<unsigned long long, 6364136223846793005ull, 1442695040888963407ull, 0ull>, std::__1::random_device>&, int, float*, int*, float*)
0000000000115740 D guard variable for Eigen::internal::manage_caching_sizes(Eigen::Action, long*, long*, long*)::m_cacheSizes
0000000000115670 D guard variable for pybind11::detail::get_local_internals()::locals
0000000000115718 D guard variable for pybind11::detail::npy_api::get()::api
0000000000028570 T ThreadedRNG64<SplitMix64, std::__1::random_device>::initialize(int)
000000000002d8a0 T ThreadedRNG64<Xoshiro256StarStar, std::__1::random_device>::initialize(int)
0000000000031530 T ThreadedRNG64<pcg_detail::engine<unsigned long long, unsigned __int128, pcg_detail::xsl_rr_mixin<unsigned long long, unsigned __int128>, false, pcg_detail::specific_stream<unsigned __int128>, pcg_detail::default_multiplier<unsigned __int128> >, std::__1::random_device>::initialize(int)
00000000000158d0 T ThreadedRNG64<std::__1::mersenne_twister_engine<unsigned long long, 64ul, 312ul, 156ul, 31ul, 13043109905998158313ull, 29ul, 6148914691236517205ull, 17ul, 8202884508482404352ull, 37ul, 18444473444759240704ull, 43ul, 6364136223846793005ull>, std::__1::random_device>::initialize(int)
000000000002f8b0 T ThreadedRNG64<std::__1::linear_congruential_engine<unsigned long long, 6364136223846793005ull, 1442695040888963407ull, 0ull>, std::__1::random_device>::initialize(int)
00000000000105f0 T ConvergenceTools<double>::average_estimates(double, double, int, int, int const*, int const*, double**, int*, double*, double*)
000000000000ff80 T ConvergenceTools<double>::check_convergence(double**, int, int, int const*, int, double, double, double, double*, int*, int*)
0000000000011320 T ConvergenceTools<long double>::average_estimates(long double, long double, int, int, int const*, int const*, long double**, int*, long double*, long double*)
0000000000010d80 T ConvergenceTools<long double>::check_convergence(long double**, int, int, int const*, int, long double, long double, long double, long double*, int*, int*)
000000000000f7a0 T ConvergenceTools<float>::average_estimates(float, float, int, int, int const*, int const*, float**, int*, float*, float*)
000000000000f110 T ConvergenceTools<float>::check_convergence(float**, int, int, int const*, int, float, float, float, float*, int*, int*)
00000000001068b0 T PyLinearOperator<double>::PyLinearOperator(pybind11::object const&)
00000000000ecc70 T PyLinearOperator<float>::PyLinearOperator(pybind11::object const&)
000000000001c3f0 T cMatrixOperations<double>::csc_matvec(double const*, int const*, int const*, double const*, int, int, double*)
000000000001bff0 T cMatrixOperations<double>::csr_matvec(double const*, int const*, int const*, double const*, int, double*)
000000000001b1e0 T cMatrixOperations<double>::dense_matvec(double const*, double const*, int, int, int, double*)
000000000001c500 T cMatrixOperations<double>::csc_matvec_plus(double const*, int const*, int const*, double const*, double, int, double*)
000000000001c0e0 T cMatrixOperations<double>::csr_matvec_plus(double const*, int const*, int const*, double const*, double, int, double*)
000000000001b430 T cMatrixOperations<double>::dense_matvec_plus(double const*, double const*, double, int, int, int, double*)
000000000001c800 T cMatrixOperations<double>::create_band_matrix(double const*, double const*, int, int, double**)
000000000001c5f0 T cMatrixOperations<double>::csc_transposed_matvec(double const*, int const*, int const*, double const*, int, double*)
000000000001c1f0 T cMatrixOperations<double>::csr_transposed_matvec(double const*, int const*, int const*, double const*, int, int, double*)
000000000001b900 T cMatrixOperations<double>::dense_transposed_matvec(double const*, double const*, int, int, int, double*)
000000000001c6e0 T cMatrixOperations<double>::csc_transposed_matvec_plus(double const*, int const*, int const*, double const*, double, int, double*)
000000000001c300 T cMatrixOperations<double>::csr_transposed_matvec_plus(double const*, int const*, int const*, double const*, double, int, double*)
000000000001bb60 T cMatrixOperations<double>::dense_transposed_matvec_plus(double const*, double const*, double, int, int, int, double*)
000000000001dac0 T cMatrixOperations<long double>::csc_matvec(long double const*, int const*, int const*, long double const*, int, int, long double*)
000000000001d5e0 T cMatrixOperations<long double>::csr_matvec(long double const*, int const*, int const*, long double const*, int, long double*)
000000000001c8a0 T cMatrixOperations<long double>::dense_matvec(long double const*, long double const*, int, int, int, long double*)
000000000001dc70 T cMatrixOperations<long double>::csc_matvec_plus(long double const*, int const*, int const*, long double const*, long double, int, long double*)
000000000001d6e0 T cMatrixOperations<long double>::csr_matvec_plus(long double const*, int const*, int const*, long double const*, long double, int, long double*)
000000000001cbf0 T cMatrixOperations<long double>::dense_matvec_plus(long double const*, long double const*, long double, int, int, int, long double*)
000000000001dfa0 T cMatrixOperations<long double>::create_band_matrix(long double const*, long double const*, int, int, long double**)
000000000001dd90 T cMatrixOperations<long double>::csc_transposed_matvec(long double const*, int const*, int const*, long double const*, int, long double*)
000000000001d7f0 T cMatrixOperations<long double>::csr_transposed_matvec(long double const*, int const*, int const*, long double const*, int, int, long double*)
000000000001cf40 T cMatrixOperations<long double>::dense_transposed_matvec(long double const*, long double const*, int, int, int, long double*)
000000000001de90 T cMatrixOperations<long double>::csc_transposed_matvec_plus(long double const*, int const*, int const*, long double const*, long double, int, long double*)
000000000001d9a0 T cMatrixOperations<long double>::csr_transposed_matvec_plus(long double const*, int const*, int const*, long double const*, long double, int, long double*)
000000000001d2a0 T cMatrixOperations<long double>::dense_transposed_matvec_plus(long double const*, long double const*, long double, int, int, int, long double*)
000000000001ad30 T cMatrixOperations<float>::csc_matvec(float const*, int const*, int const*, float const*, int, int, float*)
000000000001a930 T cMatrixOperations<float>::csr_matvec(float const*, int const*, int const*, float const*, int, float*)
0000000000019b50 T cMatrixOperations<float>::dense_matvec(float const*, float const*, int, int, int, float*)
000000000001ae40 T cMatrixOperations<float>::csc_matvec_plus(float const*, int const*, int const*, float const*, float, int, float*)
000000000001aa20 T cMatrixOperations<float>::csr_matvec_plus(float const*, int const*, int const*, float const*, float, int, float*)
0000000000019da0 T cMatrixOperations<float>::dense_matvec_plus(float const*, float const*, float, int, int, int, float*)
000000000001b140 T cMatrixOperations<float>::create_band_matrix(float const*, float const*, int, int, float**)
000000000001af30 T cMatrixOperations<float>::csc_transposed_matvec(float const*, int const*, int const*, float const*, int, float*)
000000000001ab30 T cMatrixOperations<float>::csr_transposed_matvec(float const*, int const*, int const*, float const*, int, int, float*)
000000000001a250 T cMatrixOperations<float>::dense_transposed_matvec(float const*, float const*, int, int, int, float*)
000000000001b020 T cMatrixOperations<float>::csc_transposed_matvec_plus(float const*, int const*, int const*, float const*, float, int, float*)
000000000001ac40 T cMatrixOperations<float>::csr_transposed_matvec_plus(float const*, int const*, int const*, float const*, float, int, float*)
000000000001a4b0 T cMatrixOperations<float>::dense_transposed_matvec_plus(float const*, float const*, float, int, int, int, float*)
0000000000012c70 T cVectorOperations<double>::copy_vector(double const*, int, double*)
0000000000013100 T cVectorOperations<double>::inner_product(double const*, double const*, int)
00000000000131e0 T cVectorOperations<double>::euclidean_norm(double const*, int)
0000000000012df0 T cVectorOperations<double>::copy_scaled_vector(double const*, int, double, double*)
0000000000012f60 T cVectorOperations<double>::subtract_scaled_vector(double const*, int, double, double*)
0000000000013450 T cVectorOperations<double>::normalize_vector_and_copy(double const*, int, double*)
00000000000132b0 T cVectorOperations<double>::normalize_vector_in_place(double*, int)
0000000000013630 T cVectorOperations<long double>::copy_vector(long double const*, int, long double*)
00000000000137c0 T cVectorOperations<long double>::inner_product(long double const*, long double const*, int)
0000000000013890 T cVectorOperations<long double>::euclidean_norm(long double const*, int)
00000000000136c0 T cVectorOperations<long double>::copy_scaled_vector(long double const*, int, long double, long double*)
0000000000013730 T cVectorOperations<long double>::subtract_scaled_vector(long double const*, int, long double, long double*)
0000000000013a70 T cVectorOperations<long double>::normalize_vector_and_copy(long double const*, int, long double*)
0000000000013950 T cVectorOperations<long double>::normalize_vector_in_place(long double*, int)
0000000000012300 T cVectorOperations<float>::copy_vector(float const*, int, float*)
0000000000012760 T cVectorOperations<float>::inner_product(float const*, float const*, int)
0000000000012840 T cVectorOperations<float>::euclidean_norm(float const*, int)
0000000000012480 T cVectorOperations<float>::copy_scaled_vector(float const*, int, float, float*)
00000000000125e0 T cVectorOperations<float>::subtract_scaled_vector(float const*, int, float, float*)
0000000000012aa0 T cVectorOperations<float>::normalize_vector_and_copy(float const*, int, float*)
0000000000012910 T cVectorOperations<float>::normalize_vector_in_place(float*, int)
0000000000016770 T cOrthogonalization<double>::gram_schmidt_process(double const*, int, int, int, int, double*)
0000000000016ed0 T cOrthogonalization<double>::orthogonalize_vectors(double*, int, int)
0000000000018730 T cOrthogonalization<long double>::gram_schmidt_process(long double const*, int, int, int, int, long double*)
0000000000018ce0 T cOrthogonalization<long double>::orthogonalize_vectors(long double*, int, int)
0000000000013ba0 T cOrthogonalization<float>::gram_schmidt_process(float const*, int, int, int, int, float*)
0000000000014600 T cOrthogonalization<float>::orthogonalize_vectors(float*, int, int)
00000000000b91d0 T Eigen::DenseStorage<double, -1, -1, -1, 0>::resize(long, long, long)
00000000000d2c80 T Eigen::DenseStorage<double, -1, -1, -1, 0>::DenseStorage(Eigen::DenseStorage<double, -1, -1, -1, 0> const&)
000000000009e690 T Eigen::DenseStorage<float, -1, -1, -1, 0>::resize(long, long, long)
00000000000b8340 T Eigen::DenseStorage<float, -1, -1, -1, 0>::DenseStorage(Eigen::DenseStorage<float, -1, -1, -1, 0> const&)
0000000000048090 T Eigen::SparseMatrix<double, 0, int>::~SparseMatrix()
0000000000049b60 T Eigen::SparseMatrix<double, 0, int>::operator=(Eigen::SparseMatrix<double, 0, int> const&)
0000000000048f80 T Eigen::SparseMatrix<double, 0, int>& Eigen::SparseMatrix<double, 0, int>::operator=<Eigen::Map<Eigen::SparseMatrix<double, 0, int>, 0, Eigen::Stride<0, 0> > >(Eigen::SparseMatrixBase<Eigen::Map<Eigen::SparseMatrix<double, 0, int>, 0, Eigen::Stride<0, 0> > > const&)
000000000001faf0 T Eigen::SparseMatrix<float, 0, int>::~SparseMatrix()
0000000000021e90 T Eigen::SparseMatrix<float, 0, int>::operator=(Eigen::SparseMatrix<float, 0, int> const&)
0000000000020e00 T Eigen::SparseMatrix<float, 0, int>& Eigen::SparseMatrix<float, 0, int>::operator=<Eigen::Map<Eigen::SparseMatrix<float, 0, int>, 0, Eigen::Stride<0, 0> > >(Eigen::SparseMatrixBase<Eigen::Map<Eigen::SparseMatrix<float, 0, int>, 0, Eigen::Stride<0, 0> > > const&)
00000000000515f0 T Eigen::PlainObjectBase<Eigen::Matrix<double, -1, 1, 0, -1, 1> >::resize(long, long)
000000000002c3b0 T Eigen::PlainObjectBase<Eigen::Matrix<float, -1, 1, 0, -1, 1> >::resize(long, long)
00000000000be7f0 T Eigen::Matrix<double, -1, 1, 0, -1, 1>::Matrix<Eigen::Product<Eigen::Matrix<double, -1, -1, 0, -1, -1>, Eigen::Map<Eigen::Matrix<double, -1, 1, 0, -1, 1> const, 0, Eigen::Stride<0, 0> >, 0> >(Eigen::Product<Eigen::Matrix<double, -1, -1, 0, -1, -1>, Eigen::Map<Eigen::Matrix<double, -1, 1, 0, -1, 1> const, 0, Eigen::Stride<0, 0> >, 0> const&)
0000000000051450 T Eigen::Matrix<double, -1, 1, 0, -1, 1>::Matrix<Eigen::Product<Eigen::SparseMatrix<double, 0, int>, Eigen::Map<Eigen::Matrix<double, -1, 1, 0, -1, 1> const, 0, Eigen::Stride<0, 0> >, 0> >(Eigen::Product<Eigen::SparseMatrix<double, 0, int>, Eigen::Map<Eigen::Matrix<double, -1, 1, 0, -1, 1> const, 0, Eigen::Stride<0, 0> >, 0> const&)
00000000000a3f80 T Eigen::Matrix<float, -1, 1, 0, -1, 1>::Matrix<Eigen::Product<Eigen::Matrix<float, -1, -1, 0, -1, -1>, Eigen::Map<Eigen::Matrix<float, -1, 1, 0, -1, 1> const, 0, Eigen::Stride<0, 0> >, 0> >(Eigen::Product<Eigen::Matrix<float, -1, -1, 0, -1, -1>, Eigen::Map<Eigen::Matrix<float, -1, 1, 0, -1, 1> const, 0, Eigen::Stride<0, 0> >, 0> const&)
000000000002c210 T Eigen::Matrix<float, -1, 1, 0, -1, 1>::Matrix<Eigen::Product<Eigen::SparseMatrix<float, 0, int>, Eigen::Map<Eigen::Matrix<float, -1, 1, 0, -1, 1> const, 0, Eigen::Stride<0, 0> >, 0> >(Eigen::Product<Eigen::SparseMatrix<float, 0, int>, Eigen::Map<Eigen::Matrix<float, -1, 1, 0, -1, 1> const, 0, Eigen::Stride<0, 0> >, 0> const&)
00000000000516a0 T void Eigen::internal::call_assignment<Eigen::Map<Eigen::Matrix<double, -1, 1, 0, -1, 1>, 0, Eigen::Stride<0, 0> >, Eigen::Product<Eigen::Transpose<Eigen::SparseMatrix<double, 0, int> const>, Eigen::Map<Eigen::Matrix<double, -1, 1, 0, -1, 1> const, 0, Eigen::Stride<0, 0> >, 0>, Eigen::internal::assign_op<double, double> >(Eigen::Map<Eigen::Matrix<double, -1, 1, 0, -1, 1>, 0, Eigen::Stride<0, 0> >&, Eigen::Product<Eigen::Transpose<Eigen::SparseMatrix<double, 0, int> const>, Eigen::Map<Eigen::Matrix<double, -1, 1, 0, -1, 1> const, 0, Eigen::Stride<0, 0> >, 0> const&, Eigen::internal::assign_op<double, double> const&, std::__1::enable_if<evaluator_assume_aliasing<Eigen::Product<Eigen::Transpose<Eigen::SparseMatrix<double, 0, int> const>, Eigen::Map<Eigen::Matrix<double, -1, 1, 0, -1, 1> const, 0, Eigen::Stride<0, 0> >, 0> >::value, void*>::type)
000000000002c460 T void Eigen::internal::call_assignment<Eigen::Map<Eigen::Matrix<float, -1, 1, 0, -1, 1>, 0, Eigen::Stride<0, 0> >, Eigen::Product<Eigen::Transpose<Eigen::SparseMatrix<float, 0, int> const>, Eigen::Map<Eigen::Matrix<float, -1, 1, 0, -1, 1> const, 0, Eigen::Stride<0, 0> >, 0>, Eigen::internal::assign_op<float, float> >(Eigen::Map<Eigen::Matrix<float, -1, 1, 0, -1, 1>, 0, Eigen::Stride<0, 0> >&, Eigen::Product<Eigen::Transpose<Eigen::SparseMatrix<float, 0, int> const>, Eigen::Map<Eigen::Matrix<float, -1, 1, 0, -1, 1> const, 0, Eigen::Stride<0, 0> >, 0> const&, Eigen::internal::assign_op<float, float> const&, std::__1::enable_if<evaluator_assume_aliasing<Eigen::Product<Eigen::Transpose<Eigen::SparseMatrix<float, 0, int> const>, Eigen::Map<Eigen::Matrix<float, -1, 1, 0, -1, 1> const, 0, Eigen::Stride<0, 0> >, 0> >::value, void*>::type)
000000000002d280 T Eigen::internal::queryCacheSizes(int&, int&, int&)
0000000000049d40 T Eigen::internal::CompressedStorage<double, int>::operator=(Eigen::internal::CompressedStorage<double, int> const&)
0000000000022070 T Eigen::internal::CompressedStorage<float, int>::operator=(Eigen::internal::CompressedStorage<float, int> const&)
0000000000049130 T void Eigen::internal::assign_sparse_to_sparse<Eigen::SparseMatrix<double, 0, int>, Eigen::Map<Eigen::SparseMatrix<double, 0, int>, 0, Eigen::Stride<0, 0> > >(Eigen::SparseMatrix<double, 0, int>&, Eigen::Map<Eigen::SparseMatrix<double, 0, int>, 0, Eigen::Stride<0, 0> > const&)
0000000000049e30 T void Eigen::internal::assign_sparse_to_sparse<Eigen::SparseMatrix<double, 0, int>, Eigen::SparseMatrix<double, 0, int> >(Eigen::SparseMatrix<double, 0, int>&, Eigen::SparseMatrix<double, 0, int> const&)
00000000000214a0 T void Eigen::internal::assign_sparse_to_sparse<Eigen::SparseMatrix<float, 0, int>, Eigen::Map<Eigen::SparseMatrix<float, 0, int>, 0, Eigen::Stride<0, 0> > >(Eigen::SparseMatrix<float, 0, int>&, Eigen::Map<Eigen::SparseMatrix<float, 0, int>, 0, Eigen::Stride<0, 0> > const&)
0000000000022160 T void Eigen::internal::assign_sparse_to_sparse<Eigen::SparseMatrix<float, 0, int>, Eigen::SparseMatrix<float, 0, int> >(Eigen::SparseMatrix<float, 0, int>&, Eigen::SparseMatrix<float, 0, int> const&)
000000000002d4d0 T Eigen::internal::queryCacheSizes_intel_codes(int&, int&, int&)
00000000000be990 T Eigen::internal::general_matrix_vector_product<long, double, Eigen::internal::const_blas_data_mapper<double, long, 0>, 0, false, double, Eigen::internal::const_blas_data_mapper<double, long, 1>, false, 0>::run(long, long, Eigen::internal::const_blas_data_mapper<double, long, 0> const&, Eigen::internal::const_blas_data_mapper<double, long, 1> const&, double*, long, double)
00000000000a4110 T Eigen::internal::general_matrix_vector_product<long, float, Eigen::internal::const_blas_data_mapper<float, long, 0>, 0, false, float, Eigen::internal::const_blas_data_mapper<float, long, 1>, false, 0>::run(long, long, Eigen::internal::const_blas_data_mapper<float, long, 0> const&, Eigen::internal::const_blas_data_mapper<float, long, 1> const&, float*, long, float)
0000000000051a80 T Eigen::internal::sparse_time_dense_product_impl<Eigen::Transpose<Eigen::SparseMatrix<double, 0, int> const>, Eigen::Map<Eigen::Matrix<double, -1, 1, 0, -1, 1> const, 0, Eigen::Stride<0, 0> >, Eigen::Matrix<double, -1, 1, 0, -1, 1>, double, 1, true>::run(Eigen::Transpose<Eigen::SparseMatrix<double, 0, int> const> const&, Eigen::Map<Eigen::Matrix<double, -1, 1, 0, -1, 1> const, 0, Eigen::Stride<0, 0> > const&, Eigen::Matrix<double, -1, 1, 0, -1, 1>&, double const&)
000000000002c840 T Eigen::internal::sparse_time_dense_product_impl<Eigen::Transpose<Eigen::SparseMatrix<float, 0, int> const>, Eigen::Map<Eigen::Matrix<float, -1, 1, 0, -1, 1> const, 0, Eigen::Stride<0, 0> >, Eigen::Matrix<float, -1, 1, 0, -1, 1>, float, 1, true>::run(Eigen::Transpose<Eigen::SparseMatrix<float, 0, int> const> const&, Eigen::Map<Eigen::Matrix<float, -1, 1, 0, -1, 1> const, 0, Eigen::Stride<0, 0> > const&, Eigen::Matrix<float, -1, 1, 0, -1, 1>&, float const&)
0000000000049cc0 T double* Eigen::internal::conditional_aligned_realloc_new_auto<double, true>(double*, unsigned long, unsigned long)
0000000000021ff0 T float* Eigen::internal::conditional_aligned_realloc_new_auto<float, true>(float*, unsigned long, unsigned long)
000000000001ee20 T int* Eigen::internal::conditional_aligned_realloc_new_auto<int, true>(int*, unsigned long, unsigned long)
0000000000003c50 T pybind11::cast_error::~cast_error()
0000000000003860 T pybind11::cast_error::~cast_error()
000000000000d1f0 T pybind11::tuple pybind11::make_tuple<(pybind11::return_value_policy)1, pybind11::handle&>(pybind11::handle&)
0000000000020ec0 T pybind11::tuple pybind11::make_tuple<(pybind11::return_value_policy)1, pybind11::object&>(pybind11::object&)
00000000000f2a70 T pybind11::tuple pybind11::make_tuple<(pybind11::return_value_policy)1, pybind11::array_t<double, 17>&>(pybind11::array_t<double, 17>&)
00000000000d8eb0 T pybind11::tuple pybind11::make_tuple<(pybind11::return_value_policy)1, pybind11::array_t<float, 17>&>(pybind11::array_t<float, 17>&)
00000000000012c0 T pybind11::raise_from(_object*, char const*)
0000000000028b50 T pybind11::buffer_info::buffer_info(Py_buffer*, bool)
0000000000029090 T pybind11::buffer_info::buffer_info(void*, long, std::__1::basic_string<char, std::__1::char_traits<char>, std::__1::allocator<char> > const&, long, pybind11::detail::any_container<long>, pybind11::detail::any_container<long>, bool)
00000000000292e0 T pybind11::buffer_info::~buffer_info()
0000000000000260 T pybind11::error_scope::~error_scope()
0000000000029760 T pybind11::index_error::~index_error()
0000000000029750 T pybind11::index_error::~index_error()
0000000000007e80 T pybind11::cpp_function::dispatcher(_object*, _object*, _object*)
000000000000acd0 T pybind11::cpp_function::strdup_guard::~strdup_guard()
0000000000007940 T pybind11::cpp_function::strdup_guard::operator()(char const*)
0000000000005c10 T pybind11::cpp_function::initialize_generic(std::__1::unique_ptr<pybind11::detail::function_record, pybind11::cpp_function::InitializingFunctionRecordDeleter>&&, char const*, std::type_info const* const*, unsigned long)
0000000000005bc0 T pybind11::cpp_function::make_function_record()
000000000000d580 T pybind11::cpp_function::destruct(pybind11::detail::function_record*, bool)
0000000000005af0 T pybind11::cpp_function::cpp_function<pybind11::detail::all_type_info_get_cache(_typeobject*)::'lambda'(pybind11::handle), void>(pybind11::detail::all_type_info_get_cache(_typeobject*)::'lambda'(pybind11::handle)&&)
0000000000004ec0 T pybind11::cpp_function::~cpp_function()
0000000000000920 T pybind11::pybind11_fail(char const*)
0000000000001a80 T pybind11::pybind11_fail(std::__1::basic_string<char, std::__1::char_traits<char>, std::__1::allocator<char> > const&)
0000000000001580 T pybind11::error_already_set::m_fetched_error_deleter(pybind11::detail::error_fetch_and_normalize*)
00000000000014a0 T pybind11::error_already_set::error_already_set()
0000000000000050 T pybind11::error_already_set::~error_already_set()
0000000000000000 T pybind11::error_already_set::~error_already_set()
000000000000f0c0 T pybind11::gil_scoped_acquire::dec_ref()
0000000000000140 T pybind11::gil_scoped_acquire::gil_scoped_acquire()
00000000000002a0 T pybind11::gil_scoped_acquire::gil_scoped_acquire()
0000000000000290 T pybind11::gil_scoped_acquire::~gil_scoped_acquire()
000000000000f090 T pybind11::gil_scoped_acquire::~gil_scoped_acquire()
000000000000d300 T pybind11::cast_error_unable_to_convert_call_arg(std::__1::basic_string<char, std::__1::char_traits<char>, std::__1::allocator<char> > const&)
0000000000003760 T pybind11::str::str(pybind11::handle)
00000000000039d0 T pybind11::str::str(pybind11::handle)
000000000000d4d0 T pybind11::str::str(pybind11::object&&)
0000000000003e60 T pybind11::str::str(char const*)
0000000000003870 T pybind11::str::~str()
0000000000003a50 T std::__1::enable_if<(!(detail::is_pyobject<std::__1::basic_string<char, std::__1::char_traits<char>, std::__1::allocator<char> > >::value)) && (detail::move_if_unreferenced<std::__1::basic_string<char, std::__1::char_traits<char>, std::__1::allocator<char> > >::value), std::__1::basic_string<char, std::__1::char_traits<char>, std::__1::allocator<char> > >::type pybind11::cast<std::__1::basic_string<char, std::__1::char_traits<char>, std::__1::allocator<char> > >(pybind11::object&&)
00000000000242a0 T std::__1::unordered_map<std::__1::basic_string<char, std::__1::char_traits<char>, std::__1::allocator<char> >, pybind11::object, std::__1::hash<std::__1::basic_string<char, std::__1::char_traits<char>, std::__1::allocator<char> > >, std::__1::equal_to<std::__1::basic_string<char, std::__1::char_traits<char>, std::__1::allocator<char> > >, std::__1::allocator<std::__1::pair<std::__1::basic_string<char, std::__1::char_traits<char>, std::__1::allocator<char> > const, pybind11::object> > > pybind11::cast<std::__1::unordered_map<std::__1::basic_string<char, std::__1::char_traits<char>, std::__1::allocator<char> >, pybind11::object, std::__1::hash<std::__1::basic_string<char, std::__1::char_traits<char>, std::__1::allocator<char> > >, std::__1::equal_to<std::__1::basic_string<char, std::__1::char_traits<char>, std::__1::allocator<char> > >, std::__1::allocator<std::__1::pair<std::__1::basic_string<char, std::__1::char_traits<char>, std::__1::allocator<char> > const, pybind11::object> > >, 0>(pybind11::handle const&)
00000000000013d0 T pybind11::dict::dict(pybind11::object&&)
00000000000012a0 T pybind11::dict::~dict()
0000000000003ac0 T std::__1::enable_if<!(detail::move_never<std::__1::basic_string<char, std::__1::char_traits<char>, std::__1::allocator<char> > >::value), std::__1::basic_string<char, std::__1::char_traits<char>, std::__1::allocator<char> > >::type pybind11::move<std::__1::basic_string<char, std::__1::char_traits<char>, std::__1::allocator<char> > >(pybind11::object&&)
00000000000072a0 T pybind11::none::~none()
000000000009e380 T pybind11::array::ensure(pybind11::handle, int)
000000000009eae0 T pybind11::array::array<double>(pybind11::detail::any_container<long>, pybind11::detail::any_container<long>, double const*, pybind11::handle)
000000000009ea10 T pybind11::array::array<double>(long, double const*, pybind11::handle)
000000000009e8e0 T pybind11::array::array<float>(pybind11::detail::any_container<long>, pybind11::detail::any_container<long>, float const*, pybind11::handle)
000000000001f0b0 T pybind11::array::array(pybind11::dtype const&, pybind11::detail::any_container<long>, pybind11::detail::any_container<long>, void const*, pybind11::handle)
0000000000047f40 T pybind11::array::array<double>(pybind11::detail::any_container<long>, pybind11::detail::any_container<long>, double const*, pybind11::handle)
0000000000047e70 T pybind11::array::array<double>(long, double const*, pybind11::handle)
000000000001ef70 T pybind11::array::array<float>(pybind11::detail::any_container<long>, pybind11::detail::any_container<long>, float const*, pybind11::handle)
000000000001eea0 T pybind11::array::array<float>(long, float const*, pybind11::handle)
000000000001f980 T pybind11::array::array<int>(pybind11::detail::any_container<long>, pybind11::detail::any_container<long>, int const*, pybind11::handle)
000000000001f8b0 T pybind11::array::array<int>(long, int const*, pybind11::handle)
000000000001f870 T pybind11::array::~array()
000000000001f590 T pybind11::dtype::dtype(int)
000000000001f570 T pybind11::dtype::~dtype()
00000000000211b0 T pybind11::tuple::tuple(pybind11::object&&)
000000000000c030 T pybind11::tuple::~tuple()
000000000001f890 T pybind11::buffer::~buffer()
00000000000b8f90 T pybind11::detail::EigenProps<Eigen::Matrix<double, -1, -1, 0, -1, -1> >::conformable(pybind11::array const&)
000000000009e450 T pybind11::detail::EigenProps<Eigen::Matrix<float, -1, -1, 0, -1, -1> >::conformable(pybind11::array const&)
0000000000024740 T void pybind11::detail::map_caster<std::__1::unordered_map<std::__1::basic_string<char, std::__1::char_traits<char>, std::__1::allocator<char> >, pybind11::object, std::__1::hash<std::__1::basic_string<char, std::__1::char_traits<char>, std::__1::allocator<char> > >, std::__1::equal_to<std::__1::basic_string<char, std::__1::char_traits<char>, std::__1::allocator<char> > >, std::__1::allocator<std::__1::pair<std::__1::basic_string<char, std::__1::char_traits<char>, std::__1::allocator<char> > const, pybind11::object> > >, std::__1::basic_string<char, std::__1::char_traits<char>, std::__1::allocator<char> >, pybind11::object>::reserve_maybe<std::__1::unordered_map<std::__1::basic_string<char, std::__1::char_traits<char>, std::__1::allocator<char> >, pybind11::object, std::__1::hash<std::__1::basic_string<char, std::__1::char_traits<char>, std::__1::allocator<char> > >, std::__1::equal_to<std::__1::basic_string<char, std::__1::char_traits<char>, std::__1::allocator<char> > >, std::__1::allocator<std::__1::pair<std::__1::basic_string<char, std::__1::char_traits<char>, std::__1::allocator<char> > const, pybind11::object> > >, 0>(pybind11::dict const&, std::__1::unordered_map<std::__1::basic_string<char, std::__1::char_traits<char>, std::__1::allocator<char> >, pybind11::object, std::__1::hash<std::__1::basic_string<char, std::__1::char_traits<char>, std::__1::allocator<char> > >, std::__1::equal_to<std::__1::basic_string<char, std::__1::char_traits<char>, std::__1::allocator<char> > >, std::__1::allocator<std::__1::pair<std::__1::basic_string<char, std::__1::char_traits<char>, std::__1::allocator<char> > const, pybind11::object> > >*)
0000000000024540 T pybind11::detail::map_caster<std::__1::unordered_map<std::__1::basic_string<char, std::__1::char_traits<char>, std::__1::allocator<char> >, pybind11::object, std::__1::hash<std::__1::basic_string<char, std::__1::char_traits<char>, std::__1::allocator<char> > >, std::__1::equal_to<std::__1::basic_string<char, std::__1::char_traits<char>, std::__1::allocator<char> > >, std::__1::allocator<std::__1::pair<std::__1::basic_string<char, std::__1::char_traits<char>, std::__1::allocator<char> > const, pybind11::object> > >, std::__1::basic_string<char, std::__1::char_traits<char>, std::__1::allocator<char> >, pybind11::object>::load(pybind11::handle, bool)
0000000000048500 T pybind11::detail::type_caster<Eigen::SparseMatrix<double, 0, int>, void>::load(pybind11::handle, bool)
000000000001ff60 T pybind11::detail::type_caster<Eigen::SparseMatrix<float, 0, int>, void>::load(pybind11::handle, bool)
00000000000b8c60 T pybind11::detail::type_caster<Eigen::Matrix<double, -1, -1, 0, -1, -1>, void>::load(pybind11::handle, bool)
000000000009e050 T pybind11::detail::type_caster<Eigen::Matrix<float, -1, -1, 0, -1, -1>, void>::load(pybind11::handle, bool)
0000000000024900 T pybind11::detail::type_caster<pybind11::object, void>::~type_caster()
000000000001e5d0 T pybind11::detail::type_caster<char, void>::cast(char const*, pybind11::return_value_policy, pybind11::handle)
0000000000048da0 T pybind11::detail::type_caster<double, void>::load(pybind11::handle, bool)
0000000000020a20 T pybind11::detail::type_caster<float, void>::load(pybind11::handle, bool)
00000000000208f0 T pybind11::detail::type_caster<int, void>::load(pybind11::handle, bool)
00000000000213b0 T pybind11::detail::type_caster<long, void>::load(pybind11::handle, bool)
0000000000020800 T pybind11::detail::type_caster<unsigned long, void>::load(pybind11::handle, bool)
00000000000033b0 T pybind11::detail::error_string()
00000000000d7e80 T pybind11::detail::tuple_caster<std::__1::pair, unsigned long, unsigned long>::load(pybind11::handle, bool)
00000000000d7f60 T bool pybind11::detail::tuple_caster<std::__1::pair, unsigned long, unsigned long>::load_impl<0ul, 1ul>(pybind11::sequence const&, bool, std::__1::integer_sequence<unsigned long, 0ul, 1ul>)
0000000000007c50 T pybind11::detail::clean_type_id(std::__1::basic_string<char, std::__1::char_traits<char>, std::__1::allocator<char> >&)
000000000000bf40 T pybind11::detail::function_call::function_call(pybind11::detail::function_record const&, pybind11::handle)
000000000000c320 T pybind11::detail::function_call::~function_call()
0000000000000340 T pybind11::detail::get_internals()
000000000000bd00 T pybind11::detail::get_type_info(_typeobject*)
0000000000007a70 T pybind11::detail::get_type_info(std::__1::type_index const&, bool)
0000000000003650 T pybind11::detail::string_caster<std::__1::basic_string<char, std::__1::char_traits<char>, std::__1::allocator<char> >, false>::load(pybind11::handle, bool)
0000000000003890 T bool pybind11::detail::string_caster<std::__1::basic_string<char, std::__1::char_traits<char>, std::__1::allocator<char> >, false>::load_raw<char>(std::__1::enable_if<std::is_same<char, char>::value, pybind11::handle>::type)
000000000000e3c0 T pybind11::detail::clear_instance(_object*)
000000000000e6b0 T pybind11::detail::clear_patients(_object*)
00000000000480d0 T bool pybind11::detail::argument_loader<Eigen::SparseMatrix<double, 0, int> const*, pybind11::array_t<double, 17> const&, unsigned long, int, unsigned long, double, unsigned long, unsigned long, double, double, double, double, unsigned long, unsigned long, int, pybind11::array_t<double, 17>&, pybind11::array_t<double, 17>&, pybind11::array_t<double, 17>&, pybind11::array_t<int, 16>&, pybind11::array_t<int, 16>&, pybind11::array_t<int, 16>&, pybind11::array_t<int, 16>&, double&, pybind11::kwargs const&>::load_impl_sequence<0ul, 1ul, 2ul, 3ul, 4ul, 5ul, 6ul, 7ul, 8ul, 9ul, 10ul, 11ul, 12ul, 13ul, 14ul, 15ul, 16ul, 17ul, 18ul, 19ul, 20ul, 21ul, 22ul, 23ul>(pybind11::detail::function_call&, std::__1::integer_sequence<unsigned long, 0ul, 1ul, 2ul, 3ul, 4ul, 5ul, 6ul, 7ul, 8ul, 9ul, 10ul, 11ul, 12ul, 13ul, 14ul, 15ul, 16ul, 17ul, 18ul, 19ul, 20ul, 21ul, 22ul, 23ul>)
000000000001fb30 T bool pybind11::detail::argument_loader<Eigen::SparseMatrix<float, 0, int> const*, pybind11::array_t<float, 17> const&, unsigned long, int, unsigned long, float, unsigned long, unsigned long, float, float, float, float, unsigned long, unsigned long, int, pybind11::array_t<float, 17>&, pybind11::array_t<float, 17>&, pybind11::array_t<float, 17>&, pybind11::array_t<int, 16>&, pybind11::array_t<int, 16>&, pybind11::array_t<int, 16>&, pybind11::array_t<int, 16>&, float&, pybind11::kwargs const&>::load_impl_sequence<0ul, 1ul, 2ul, 3ul, 4ul, 5ul, 6ul, 7ul, 8ul, 9ul, 10ul, 11ul, 12ul, 13ul, 14ul, 15ul, 16ul, 17ul, 18ul, 19ul, 20ul, 21ul, 22ul, 23ul>(pybind11::detail::function_call&, std::__1::integer_sequence<unsigned long, 0ul, 1ul, 2ul, 3ul, 4ul, 5ul, 6ul, 7ul, 8ul, 9ul, 10ul, 11ul, 12ul, 13ul, 14ul, 15ul, 16ul, 17ul, 18ul, 19ul, 20ul, 21ul, 22ul, 23ul>)
00000000000b8850 T bool pybind11::detail::argument_loader<Eigen::Matrix<double, -1, -1, 0, -1, -1> const*, pybind11::array_t<double, 17> const&, unsigned long, int, unsigned long, double, unsigned long, unsigned long, double, double, double, double, unsigned long, unsigned long, int, pybind11::array_t<double, 17>&, pybind11::array_t<double, 17>&, pybind11::array_t<double, 17>&, pybind11::array_t<int, 16>&, pybind11::array_t<int, 16>&, pybind11::array_t<int, 16>&, pybind11::array_t<int, 16>&, double&, pybind11::kwargs const&>::load_impl_sequence<0ul, 1ul, 2ul, 3ul, 4ul, 5ul, 6ul, 7ul, 8ul, 9ul, 10ul, 11ul, 12ul, 13ul, 14ul, 15ul, 16ul, 17ul, 18ul, 19ul, 20ul, 21ul, 22ul, 23ul>(pybind11::detail::function_call&, std::__1::integer_sequence<unsigned long, 0ul, 1ul, 2ul, 3ul, 4ul, 5ul, 6ul, 7ul, 8ul, 9ul, 10ul, 11ul, 12ul, 13ul, 14ul, 15ul, 16ul, 17ul, 18ul, 19ul, 20ul, 21ul, 22ul, 23ul>)
000000000009dc40 T bool pybind11::detail::argument_loader<Eigen::Matrix<float, -1, -1, 0, -1, -1> const*, pybind11::array_t<float, 17> const&, unsigned long, int, unsigned long, float, unsigned long, unsigned long, float, float, float, float, unsigned long, unsigned long, int, pybind11::array_t<float, 17>&, pybind11::array_t<float, 17>&, pybind11::array_t<float, 17>&, pybind11::array_t<int, 16>&, pybind11::array_t<int, 16>&, pybind11::array_t<int, 16>&, pybind11::array_t<int, 16>&, float&, pybind11::kwargs const&>::load_impl_sequence<0ul, 1ul, 2ul, 3ul, 4ul, 5ul, 6ul, 7ul, 8ul, 9ul, 10ul, 11ul, 12ul, 13ul, 14ul, 15ul, 16ul, 17ul, 18ul, 19ul, 20ul, 21ul, 22ul, 23ul>(pybind11::detail::function_call&, std::__1::integer_sequence<unsigned long, 0ul, 1ul, 2ul, 3ul, 4ul, 5ul, 6ul, 7ul, 8ul, 9ul, 10ul, 11ul, 12ul, 13ul, 14ul, 15ul, 16ul, 17ul, 18ul, 19ul, 20ul, 21ul, 22ul, 23ul>)
00000000000ed1a0 T bool pybind11::detail::argument_loader<pybind11::object const*, pybind11::array_t<double, 17> const&, unsigned long, int, unsigned long, double, unsigned long, unsigned long, double, double, double, double, unsigned long, unsigned long, int, pybind11::array_t<double, 17>&, pybind11::array_t<double, 17>&, pybind11::array_t<double, 17>&, pybind11::array_t<int, 16>&, pybind11::array_t<int, 16>&, pybind11::array_t<int, 16>&, pybind11::array_t<int, 16>&, double&, pybind11::kwargs const&>::load_impl_sequence<0ul, 1ul, 2ul, 3ul, 4ul, 5ul, 6ul, 7ul, 8ul, 9ul, 10ul, 11ul, 12ul, 13ul, 14ul, 15ul, 16ul, 17ul, 18ul, 19ul, 20ul, 21ul, 22ul, 23ul>(pybind11::detail::function_call&, std::__1::integer_sequence<unsigned long, 0ul, 1ul, 2ul, 3ul, 4ul, 5ul, 6ul, 7ul, 8ul, 9ul, 10ul, 11ul, 12ul, 13ul, 14ul, 15ul, 16ul, 17ul, 18ul, 19ul, 20ul, 21ul, 22ul, 23ul>)
00000000000d31b0 T bool pybind11::detail::argument_loader<pybind11::object const*, pybind11::array_t<float, 17> const&, unsigned long, int, unsigned long, float, unsigned long, unsigned long, float, float, float, float, unsigned long, unsigned long, int, pybind11::array_t<float, 17>&, pybind11::array_t<float, 17>&, pybind11::array_t<float, 17>&, pybind11::array_t<int, 16>&, pybind11::array_t<int, 16>&, pybind11::array_t<int, 16>&, pybind11::array_t<int, 16>&, float&, pybind11::kwargs const&>::load_impl_sequence<0ul, 1ul, 2ul, 3ul, 4ul, 5ul, 6ul, 7ul, 8ul, 9ul, 10ul, 11ul, 12ul, 13ul, 14ul, 15ul, 16ul, 17ul, 18ul, 19ul, 20ul, 21ul, 22ul, 23ul>(pybind11::detail::function_call&, std::__1::integer_sequence<unsigned long, 0ul, 1ul, 2ul, 3ul, 4ul, 5ul, 6ul, 7ul, 8ul, 9ul, 10ul, 11ul, 12ul, 13ul, 14ul, 15ul, 16ul, 17ul, 18ul, 19ul, 20ul, 21ul, 22ul, 23ul>)
000000000000adc0 T pybind11::detail::local_internals::local_internals()
0000000000020be0 T bool pybind11::detail::pyobject_caster<pybind11::kwargs>::load<pybind11::kwargs, 0>(pybind11::handle, bool)
0000000000048d30 T pybind11::detail::pyobject_caster<pybind11::array_t<double, 17> >::load(pybind11::handle, bool)
0000000000020790 T pybind11::detail::pyobject_caster<pybind11::array_t<float, 17> >::load(pybind11::handle, bool)
0000000000020b70 T pybind11::detail::pyobject_caster<pybind11::array_t<int, 16> >::load(pybind11::handle, bool)
00000000000b9260 T pybind11::handle pybind11::detail::eigen_array_cast<pybind11::detail::EigenProps<Eigen::Matrix<double, -1, -1, 0, -1, -1> > >(pybind11::detail::EigenProps<Eigen::Matrix<double, -1, -1, 0, -1, -1> >::Type const&, pybind11::handle, bool)
000000000009e720 T pybind11::handle pybind11::detail::eigen_array_cast<pybind11::detail::EigenProps<Eigen::Matrix<float, -1, -1, 0, -1, -1> > >(pybind11::detail::EigenProps<Eigen::Matrix<float, -1, -1, 0, -1, -1> >::Type const&, pybind11::handle, bool)
000000000000d1d0 T pybind11::detail::simple_collector<(pybind11::return_value_policy)1>::~simple_collector()
0000000000003d20 T pybind11::detail::dict_getitemstring(_object*, char const*)
000000000000ad40 T pybind11::detail::get_local_internals()
000000000000cc30 T pybind11::detail::loader_life_support::get_stack_top()
000000000000ccc0 T pybind11::detail::loader_life_support::set_stack_top(pybind11::detail::loader_life_support*)
000000000000cd50 T pybind11::detail::loader_life_support::~loader_life_support()
00000000000009e0 T pybind11::detail::translate_exception(std::exception_ptr)
0000000000001080 T pybind11::detail::make_object_base_type(_typeobject*)
000000000000e850 T pybind11::detail::traverse_offset_bases(void*, pybind11::detail::type_info const*, pybind11::detail::instance*, bool (*)(void*, pybind11::detail::instance*))
00000000000048e0 T pybind11::detail::all_type_info_populate(_typeobject*, std::__1::vector<pybind11::detail::type_info*, std::__1::allocator<pybind11::detail::type_info*> >&)
0000000000000ee0 T pybind11::detail::make_default_metaclass()
0000000000004830 T pybind11::detail::all_type_info_get_cache(_typeobject*)
0000000000004250 T bool pybind11::detail::handle_nested_exception<pybind11::error_already_set, 0>(pybind11::error_already_set const&, std::exception_ptr const&)
0000000000004070 T bool pybind11::detail::handle_nested_exception<std::range_error, 0>(std::range_error const&, std::exception_ptr const&)
00000000000041b0 T bool pybind11::detail::handle_nested_exception<std::domain_error, 0>(std::domain_error const&, std::exception_ptr const&)
0000000000004110 T bool pybind11::detail::handle_nested_exception<std::length_error, 0>(std::length_error const&, std::exception_ptr const&)
00000000000040c0 T bool pybind11::detail::handle_nested_exception<std::out_of_range, 0>(std::out_of_range const&, std::exception_ptr const&)
0000000000004020 T bool pybind11::detail::handle_nested_exception<std::overflow_error, 0>(std::overflow_error const&, std::exception_ptr const&)
0000000000004160 T bool pybind11::detail::handle_nested_exception<std::invalid_argument, 0>(std::invalid_argument const&, std::exception_ptr const&)
0000000000003f30 T bool pybind11::detail::handle_nested_exception<std::nested_exception, 0>(std::nested_exception const&, std::exception_ptr const&)
0000000000004200 T bool pybind11::detail::handle_nested_exception<std::bad_alloc, 0>(std::bad_alloc const&, std::exception_ptr const&)
0000000000003fd0 T bool pybind11::detail::handle_nested_exception<std::exception, 0>(std::exception const&, std::exception_ptr const&)
000000000000e7b0 T pybind11::detail::deregister_instance_impl(void*, pybind11::detail::instance*)
0000000000003dd0 T pybind11::detail::error_fetch_and_normalize::restore()
0000000000001600 T pybind11::detail::error_fetch_and_normalize::error_fetch_and_normalize(char const*)
0000000000003480 T pybind11::detail::error_fetch_and_normalize::~error_fetch_and_normalize()
0000000000000d50 T pybind11::detail::make_static_property_type()
0000000000000880 T pybind11::detail::translate_local_exception(std::exception_ptr)
000000000000c400 T pybind11::detail::apply_exception_translators(std::__1::forward_list<void (*)(std::exception_ptr), std::__1::allocator<void (*)(std::exception_ptr)> >&)
000000000001f660 T pybind11::detail::npy_api::lookup()
000000000000c050 T pybind11::detail::accessor<pybind11::detail::accessor_policies::tuple_item>::~accessor()
0000000000000970 T pybind11::detail::accessor<pybind11::detail::accessor_policies::generic_item>::~accessor()
00000000000d8110 T pybind11::detail::accessor<pybind11::detail::accessor_policies::sequence_item>::~accessor()
0000000000007c20 T pybind11::detail::accessor<pybind11::detail::accessor_policies::str_attr>::~accessor()
000000000000e2a0 T pybind11::detail::instance::allocate_layout()
000000000000e690 T pybind11::detail::instance::deallocate_layout()
000000000000bd60 T pybind11::detail::instance::get_value_and_holder(pybind11::detail::type_info const*, bool)
000000000000bb10 T pybind11::detail::erase_all(std::__1::basic_string<char, std::__1::char_traits<char>, std::__1::allocator<char> >&, std::__1::basic_string<char, std::__1::char_traits<char>, std::__1::allocator<char> > const&)
00000000000034f0 T pybind11::detail::type_caster<std::__1::basic_string<char, std::__1::char_traits<char>, std::__1::allocator<char> >, void>& pybind11::detail::load_type<std::__1::basic_string<char, std::__1::char_traits<char>, std::__1::allocator<char> >, void>(pybind11::detail::type_caster<std::__1::basic_string<char, std::__1::char_traits<char>, std::__1::allocator<char> >, void>&, pybind11::handle const&)
00000000000243e0 T pybind11::detail::type_caster<std::__1::unordered_map<std::__1::basic_string<char, std::__1::char_traits<char>, std::__1::allocator<char> >, pybind11::object, std::__1::hash<std::__1::basic_string<char, std::__1::char_traits<char>, std::__1::allocator<char> > >, std::__1::equal_to<std::__1::basic_string<char, std::__1::char_traits<char>, std::__1::allocator<char> > >, std::__1::allocator<std::__1::pair<std::__1::basic_string<char, std::__1::char_traits<char>, std::__1::allocator<char> > const, pybind11::object> > >, void>& pybind11::detail::load_type<std::__1::unordered_map<std::__1::basic_string<char, std::__1::char_traits<char>, std::__1::allocator<char> >, pybind11::object, std::__1::hash<std::__1::basic_string<char, std::__1::char_traits<char>, std::__1::allocator<char> > >, std::__1::equal_to<std::__1::basic_string<char, std::__1::char_traits<char>, std::__1::allocator<char> > >, std::__1::allocator<std::__1::pair<std::__1::basic_string<char, std::__1::char_traits<char>, std::__1::allocator<char> > const, pybind11::object> > >, void>(pybind11::detail::type_caster<std::__1::unordered_map<std::__1::basic_string<char, std::__1::char_traits<char>, std::__1::allocator<char> >, pybind11::object, std::__1::hash<std::__1::basic_string<char, std::__1::char_traits<char>, std::__1::allocator<char> > >, std::__1::equal_to<std::__1::basic_string<char, std::__1::char_traits<char>, std::__1::allocator<char> > >, std::__1::allocator<std::__1::pair<std::__1::basic_string<char, std::__1::char_traits<char>, std::__1::allocator<char> > const, pybind11::object> > >, void>&, pybind11::handle const&)
00000000000d7d20 T pybind11::detail::type_caster<std::__1::pair<unsigned long, unsigned long>, void>& pybind11::detail::load_type<std::__1::pair<unsigned long, unsigned long>, void>(pybind11::detail::type_caster<std::__1::pair<unsigned long, unsigned long>, void>&, pybind11::handle const&)
0000000000021250 T pybind11::detail::type_caster<long, void>& pybind11::detail::load_type<long, void>(pybind11::detail::type_caster<long, void>&, pybind11::handle const&)
0000000000003ef0 T pybind11::detail::raise_err(_object*, char const*)
0000000000000860 T pybind11::object::~object()
0000000000001560 T pybind11::object::~object()
0000000000049040 T pybind11::array_t<double, 16>::raw_array_t(_object*)
00000000000b90f0 T pybind11::array_t<double, 16>::check_(pybind11::handle)
0000000000048ef0 T pybind11::array_t<double, 16>::array_t(pybind11::object const&)
0000000000049020 T pybind11::array_t<double, 16>::~array_t()
000000000004a980 T pybind11::array_t<double, 17>::raw_array_t(_object*)
000000000004a880 T pybind11::array_t<double, 17>::check_(pybind11::handle)
00000000000f29a0 T pybind11::array_t<double, 17>::array_t(long, double const*, pybind11::handle)
0000000000048070 T pybind11::array_t<double, 17>::~array_t()
0000000000020fd0 T pybind11::array_t<float, 16>::raw_array_t(_object*)
000000000009e5b0 T pybind11::array_t<float, 16>::check_(pybind11::handle)
0000000000020ce0 T pybind11::array_t<float, 16>::array_t(pybind11::object const&)
0000000000020ea0 T pybind11::array_t<float, 16>::~array_t()
0000000000022ca0 T pybind11::array_t<float, 17>::raw_array_t(_object*)
0000000000022ba0 T pybind11::array_t<float, 17>::check_(pybind11::handle)
00000000000d8de0 T pybind11::array_t<float, 17>::array_t(long, float const*, pybind11::handle)
000000000001fad0 T pybind11::array_t<float, 17>::~array_t()
00000000000210c0 T pybind11::array_t<int, 16>::raw_array_t(_object*)
0000000000022d90 T pybind11::array_t<int, 16>::check_(pybind11::handle)
0000000000020d70 T pybind11::array_t<int, 16>::array_t(pybind11::object const&)
000000000001fab0 T pybind11::array_t<int, 16>::~array_t()
000000000000d850 T pybind11::capsule::get_name_in_error_scope(_object*)
000000000000d6a0 T pybind11::capsule::capsule(void const*, char const*, void (*)(void*))
00000000000009c0 T pybind11::capsule::~capsule()
000000000001e8c0 T pybind11::module_::add_object(char const*, pybind11::handle, bool)
000000000001e320 T pybind11::module_::create_extension_module(char const*, char const*, PyModuleDef*)
00000000000478b0 T pybind11::module_& pybind11::module_::def<void _trace<false, double, Eigen::SparseMatrix<double, 0, int>, SparseEigenLinearOperator<double> (*)(Eigen::SparseMatrix<double, 0, int> const*)>(pybind11::module_&, SparseEigenLinearOperator<double> (*)(Eigen::SparseMatrix<double, 0, int> const*))::'lambda'(Eigen::SparseMatrix<double, 0, int> const*, pybind11::array_t<double, 17> const&, unsigned long, int, unsigned long, double, unsigned long, unsigned long, double, double, double, double, unsigned long, unsigned long, int, pybind11::array_t<double, 17>&, pybind11::array_t<double, 17>&, pybind11::array_t<double, 17>&, pybind11::array_t<int, 16>&, pybind11::array_t<int, 16>&, pybind11::array_t<int, 16>&, pybind11::array_t<int, 16>&, double&, pybind11::kwargs const&)>(char const*, false&&, double const&...)
000000000001e700 T pybind11::module_& pybind11::module_::def<void _trace<false, float, Eigen::SparseMatrix<float, 0, int>, SparseEigenLinearOperator<float> (*)(Eigen::SparseMatrix<float, 0, int> const*)>(pybind11::module_&, SparseEigenLinearOperator<float> (*)(Eigen::SparseMatrix<float, 0, int> const*))::'lambda'(Eigen::SparseMatrix<float, 0, int> const*, pybind11::array_t<float, 17> const&, unsigned long, int, unsigned long, float, unsigned long, unsigned long, float, float, float, float, unsigned long, unsigned long, int, pybind11::array_t<float, 17>&, pybind11::array_t<float, 17>&, pybind11::array_t<float, 17>&, pybind11::array_t<int, 16>&, pybind11::array_t<int, 16>&, pybind11::array_t<int, 16>&, pybind11::array_t<int, 16>&, float&, pybind11::kwargs const&)>(char const*, false&&, float const&...)
0000000000084a80 T pybind11::module_& pybind11::module_::def<void _trace<true, double, Eigen::SparseMatrix<double, 0, int>, SparseEigenLinearOperator<double> (*)(Eigen::SparseMatrix<double, 0, int> const*)>(pybind11::module_&, SparseEigenLinearOperator<double> (*)(Eigen::SparseMatrix<double, 0, int> const*))::'lambda'(Eigen::SparseMatrix<double, 0, int> const*, pybind11::array_t<double, 17> const&, unsigned long, int, unsigned long, double, unsigned long, unsigned long, double, double, double, double, unsigned long, unsigned long, int, pybind11::array_t<double, 17>&, pybind11::array_t<double, 17>&, pybind11::array_t<double, 17>&, pybind11::array_t<int, 16>&, pybind11::array_t<int, 16>&, pybind11::array_t<int, 16>&, pybind11::array_t<int, 16>&, double&, pybind11::kwargs const&)>(char const*, true&&, double const&...)
00000000000b83f0 T pybind11::module_& pybind11::module_::def<void _trace<true, double, Eigen::Matrix<double, -1, -1, 0, -1, -1>, DenseEigenLinearOperator<double> (*)(Eigen::Matrix<double, -1, -1, 0, -1, -1> const*)>(pybind11::module_&, DenseEigenLinearOperator<double> (*)(Eigen::Matrix<double, -1, -1, 0, -1, -1> const*))::'lambda'(Eigen::Matrix<double, -1, -1, 0, -1, -1> const*, pybind11::array_t<double, 17> const&, unsigned long, int, unsigned long, double, unsigned long, unsigned long, double, double, double, double, unsigned long, unsigned long, int, pybind11::array_t<double, 17>&, pybind11::array_t<double, 17>&, pybind11::array_t<double, 17>&, pybind11::array_t<int, 16>&, pybind11::array_t<int, 16>&, pybind11::array_t<int, 16>&, pybind11::array_t<int, 16>&, double&, pybind11::kwargs const&)>(char const*, true&&, double const&...)
00000000000ecd50 T pybind11::module_& pybind11::module_::def<void _trace<true, double, pybind11::object, PyLinearOperator<double> (*)(pybind11::object const*)>(pybind11::module_&, PyLinearOperator<double> (*)(pybind11::object const*))::'lambda'(pybind11::object const*, pybind11::array_t<double, 17> const&, unsigned long, int, unsigned long, double, unsigned long, unsigned long, double, double, double, double, unsigned long, unsigned long, int, pybind11::array_t<double, 17>&, pybind11::array_t<double, 17>&, pybind11::array_t<double, 17>&, pybind11::array_t<int, 16>&, pybind11::array_t<int, 16>&, pybind11::array_t<int, 16>&, pybind11::array_t<int, 16>&, double&, pybind11::kwargs const&)>(char const*, true&&, double const&...)
000000000006bdc0 T pybind11::module_& pybind11::module_::def<void _trace<true, float, Eigen::SparseMatrix<float, 0, int>, SparseEigenLinearOperator<float> (*)(Eigen::SparseMatrix<float, 0, int> const*)>(pybind11::module_&, SparseEigenLinearOperator<float> (*)(Eigen::SparseMatrix<float, 0, int> const*))::'lambda'(Eigen::SparseMatrix<float, 0, int> const*, pybind11::array_t<float, 17> const&, unsigned long, int, unsigned long, float, unsigned long, unsigned long, float, float, float, float, unsigned long, unsigned long, int, pybind11::array_t<float, 17>&, pybind11::array_t<float, 17>&, pybind11::array_t<float, 17>&, pybind11::array_t<int, 16>&, pybind11::array_t<int, 16>&, pybind11::array_t<int, 16>&, pybind11::array_t<int, 16>&, float&, pybind11::kwargs const&)>(char const*, true&&, float const&...)
000000000009d7d0 T pybind11::module_& pybind11::module_::def<void _trace<true, float, Eigen::Matrix<float, -1, -1, 0, -1, -1>, DenseEigenLinearOperator<float> (*)(Eigen::Matrix<float, -1, -1, 0, -1, -1> const*)>(pybind11::module_&, DenseEigenLinearOperator<float> (*)(Eigen::Matrix<float, -1, -1, 0, -1, -1> const*))::'lambda'(Eigen::Matrix<float, -1, -1, 0, -1, -1> const*, pybind11::array_t<float, 17> const&, unsigned long, int, unsigned long, float, unsigned long, unsigned long, float, float, float, float, unsigned long, unsigned long, int, pybind11::array_t<float, 17>&, pybind11::array_t<float, 17>&, pybind11::array_t<float, 17>&, pybind11::array_t<int, 16>&, pybind11::array_t<int, 16>&, pybind11::array_t<int, 16>&, pybind11::array_t<int, 16>&, float&, pybind11::kwargs const&)>(char const*, true&&, float const&...)
00000000000d2d30 T pybind11::module_& pybind11::module_::def<void _trace<true, float, pybind11::object, PyLinearOperator<float> (*)(pybind11::object const*)>(pybind11::module_&, PyLinearOperator<float> (*)(pybind11::object const*))::'lambda'(pybind11::object const*, pybind11::array_t<float, 17> const&, unsigned long, int, unsigned long, float, unsigned long, unsigned long, float, float, float, float, unsigned long, unsigned long, int, pybind11::array_t<float, 17>&, pybind11::array_t<float, 17>&, pybind11::array_t<float, 17>&, pybind11::array_t<int, 16>&, pybind11::array_t<int, 16>&, pybind11::array_t<int, 16>&, pybind11::array_t<int, 16>&, float&, pybind11::kwargs const&)>(char const*, true&&, float const&...)
000000000001e3e0 T pybind11::module_::~module_()
000000000000d8d0 T pybind11::weakref::weakref(pybind11::handle, pybind11::handle)
0000000000005ba0 T pybind11::function::~function()
00000000000d80f0 T pybind11::sequence::~sequence()
00000000000f14c0 T PyLinearOperator<double>::shape() const
00000000000f2700 T PyLinearOperator<double>::matvec(double const*, double*) const
00000000000d7490 T PyLinearOperator<float>::shape() const
00000000000d8b40 T PyLinearOperator<float>::matvec(float const*, float*) const
00000000000be470 T DenseEigenLinearOperator<double>::matvec(double const*, double*) const
00000000000a3c00 T DenseEigenLinearOperator<float>::matvec(float const*, float*) const
00000000000510d0 T SparseEigenLinearOperator<double>::matvec(double const*, double*) const
000000000002be90 T SparseEigenLinearOperator<float>::matvec(float const*, float*) const
0000000000003c70 T pybind11::cast_error::set_error() const
0000000000029780 T pybind11::index_error::set_error() const
00000000000000b0 T pybind11::error_already_set::what() const
000000000000c670 T pybind11::str pybind11::str::format<pybind11::handle&>(pybind11::handle&) const
000000000000c4c0 T pybind11::str::operator std::__1::basic_string<char, std::__1::char_traits<char>, std::__1::allocator<char> >() const
0000000000029360 T pybind11::array::fail_dim_check(long, std::__1::basic_string<char, std::__1::char_traits<char>, std::__1::allocator<char> > const&) const
0000000000028820 T pybind11::buffer::request(bool) const
000000000000d120 T pybind11::object pybind11::detail::object_api<pybind11::detail::accessor<pybind11::detail::accessor_policies::str_attr> >::operator()<(pybind11::return_value_policy)1, pybind11::handle&>(pybind11::handle&) const
00000000000f2880 T pybind11::object pybind11::detail::object_api<pybind11::detail::accessor<pybind11::detail::accessor_policies::str_attr> >::operator()<(pybind11::return_value_policy)1, pybind11::array_t<double, 17>&>(pybind11::array_t<double, 17>&) const
00000000000d8cc0 T pybind11::object pybind11::detail::object_api<pybind11::detail::accessor<pybind11::detail::accessor_policies::str_attr> >::operator()<(pybind11::return_value_policy)1, pybind11::array_t<float, 17>&>(pybind11::array_t<float, 17>&) const
0000000000020c30 T pybind11::object pybind11::detail::object_api<pybind11::handle>::operator()<(pybind11::return_value_policy)1, pybind11::object&>(pybind11::object&) const
0000000000000160 T pybind11::detail::error_fetch_and_normalize::error_string() const
0000000000001c50 T pybind11::detail::error_fetch_and_normalize::format_value_and_trace() const
000000000000d090 T pybind11::detail::accessor<pybind11::detail::accessor_policies::tuple_item>::get_cache() const
00000000000d8140 T pybind11::detail::accessor<pybind11::detail::accessor_policies::sequence_item>::get_cache() const
000000000000ba80 T pybind11::detail::accessor<pybind11::detail::accessor_policies::str_attr>::get_cache() const
0000000000007df0 T pybind11::detail::function_record* pybind11::capsule::get_pointer<pybind11::detail::function_record>() const
00000000000f2930 T pybind11::array_t<double, 16> pybind11::object::cast<pybind11::array_t<double, 16> >() const &
00000000000d8d70 T pybind11::array_t<float, 16> pybind11::object::cast<pybind11::array_t<float, 16> >() const &
                 U std::runtime_error::what() const
